   1               		.file	"onewire.c"
   2               		.arch atmega644
   3               	__SREG__ = 0x3f
   4               	__SP_H__ = 0x3e
   5               	__SP_L__ = 0x3d
   6               	__tmp_reg__ = 0
   7               	__zero_reg__ = 1
   8               		.global __do_copy_data
   9               		.global __do_clear_bss
  12               		.text
  13               	.Ltext0:
 140               	.global	init_onewire
 142               	init_onewire:
 143               		.stabd	46,0,0
   1:onewire/onewire.c **** /* vim:fdm=marker ts=4 et ai
   2:onewire/onewire.c ****  * {{{
   3:onewire/onewire.c ****  *         simple onewire library implementation
   4:onewire/onewire.c ****  *
   5:onewire/onewire.c ****  *    for additional information please
   6:onewire/onewire.c ****  *    see http://koeln.ccc.de/prozesse/running/fnordlicht
   7:onewire/onewire.c ****  *
   8:onewire/onewire.c ****  * (c) by Alexander Neumann <alexander@bumpern.de>
   9:onewire/onewire.c ****  *
  10:onewire/onewire.c ****  * This program is free software; you can redistribute it and/or modify
  11:onewire/onewire.c ****  * it under the terms of the GNU General Public License version 2 as
  12:onewire/onewire.c ****  * published by the Free Software Foundation.
  13:onewire/onewire.c ****  *
  14:onewire/onewire.c ****  * This program is distributed in the hope that it will be useful,
  15:onewire/onewire.c ****  * but WITHOUT ANY WARRANTY; without even the implied warranty of
  16:onewire/onewire.c ****  * MERCHANTABILITY or FITNESS FOR A PARTICULAR PURPOSE.  See the
  17:onewire/onewire.c ****  * GNU General Public License for more details.
  18:onewire/onewire.c ****  *
  19:onewire/onewire.c ****  * You should have received a copy of the GNU General Public License
  20:onewire/onewire.c ****  * along with this program; if not, write to the Free Software
  21:onewire/onewire.c ****  * Foundation, Inc., 675 Mass Ave, Cambridge, MA 02139, USA.
  22:onewire/onewire.c ****  *
  23:onewire/onewire.c ****  * For more information on the GPL, please go to:
  24:onewire/onewire.c ****  * http://www.gnu.org/copyleft/gpl.html
  25:onewire/onewire.c ****  }}} */
  26:onewire/onewire.c **** 
  27:onewire/onewire.c **** #include <avr/io.h>
  28:onewire/onewire.c **** #include <util/delay.h>
  29:onewire/onewire.c **** #include <util/crc16.h>
  30:onewire/onewire.c **** 
  31:onewire/onewire.c **** #include "../config.h"
  32:onewire/onewire.c **** #include "crc.h"
  33:onewire/onewire.c **** #include "onewire.h"
  34:onewire/onewire.c **** 
  35:onewire/onewire.c **** #if !defined(ONEWIRE_PINNUM) || !defined(ONEWIRE_PIN) || !defined(ONEWIRE_PORT) || !defined(ONEWIRE
  36:onewire/onewire.c **** #error ONEWIRE_PINNUM, ONEWIRE_PIN, ONEWIRE_DDR or ONEWIRE_PORT undefined!
  37:onewire/onewire.c **** #endif
  38:onewire/onewire.c **** 
  39:onewire/onewire.c **** #ifdef ONEWIRE_SUPPORT
  40:onewire/onewire.c **** 
  41:onewire/onewire.c **** #ifdef DEBUG
  42:onewire/onewire.c **** #include "../uart.h"
  43:onewire/onewire.c **** #endif
  44:onewire/onewire.c **** 
  45:onewire/onewire.c **** void init_onewire(void)
  46:onewire/onewire.c **** /* {{{ */ {
 145               	.LM0:
 146               	/* prologue: frame size=0 */
 147               	/* prologue end (size=0) */
  47:onewire/onewire.c **** 
  48:onewire/onewire.c ****     /* configure onewire pin as input */
  49:onewire/onewire.c ****     OW_CONFIG_INPUT();
 149               	.LM1:
 150 0000 5E9A      		sbi 43-0x20,6
 151 0002 5698      		cbi 42-0x20,6
  50:onewire/onewire.c **** 
  51:onewire/onewire.c ****     /* enable pullup */
  52:onewire/onewire.c ****     OW_PULLUP();
 153               	.LM2:
 154 0004 5E9A      		sbi 43-0x20,6
 155               	/* epilogue: frame size=0 */
 156 0006 0895      		ret
 157               	/* epilogue end (size=1) */
 158               	/* function init_onewire size 4 (3) */
 160               	.Lscope0:
 162               		.stabd	78,0,0
 164               	.global	reset_onewire
 166               	reset_onewire:
 167               		.stabd	46,0,0
  53:onewire/onewire.c **** 
  54:onewire/onewire.c **** } /* }}} */
  55:onewire/onewire.c **** 
  56:onewire/onewire.c **** /* low-level functions */
  57:onewire/onewire.c **** 
  58:onewire/onewire.c **** uint8_t reset_onewire(void)
  59:onewire/onewire.c **** /* {{{ */ {
 169               	.LM3:
 170               	/* prologue: frame size=0 */
 171               	/* prologue end (size=0) */
  60:onewire/onewire.c **** 
  61:onewire/onewire.c ****     /* pull bus low */
  62:onewire/onewire.c ****     OW_CONFIG_OUTPUT();
 173               	.LM4:
 174 0008 569A      		sbi 42-0x20,6
  63:onewire/onewire.c ****     OW_LOW();
 176               	.LM5:
 177 000a 5E98      		cbi 43-0x20,6
 178               	.LBB20:
 179               	.LBB21:
 181               	.Ltext1:
   1:/usr/lib/gcc/avr/4.1.0/../../../../avr/include/util/delay.h **** /* Copyright (c) 2002, Marek Michalkiewicz
   2:/usr/lib/gcc/avr/4.1.0/../../../../avr/include/util/delay.h ****    Copyright (c) 2004,2005 Joerg Wunsch
   3:/usr/lib/gcc/avr/4.1.0/../../../../avr/include/util/delay.h ****    All rights reserved.
   4:/usr/lib/gcc/avr/4.1.0/../../../../avr/include/util/delay.h **** 
   5:/usr/lib/gcc/avr/4.1.0/../../../../avr/include/util/delay.h ****    Redistribution and use in source and binary forms, with or without
   6:/usr/lib/gcc/avr/4.1.0/../../../../avr/include/util/delay.h ****    modification, are permitted provided that the following conditions are met:
   7:/usr/lib/gcc/avr/4.1.0/../../../../avr/include/util/delay.h **** 
   8:/usr/lib/gcc/avr/4.1.0/../../../../avr/include/util/delay.h ****    * Redistributions of source code must retain the above copyright
   9:/usr/lib/gcc/avr/4.1.0/../../../../avr/include/util/delay.h ****      notice, this list of conditions and the following disclaimer.
  10:/usr/lib/gcc/avr/4.1.0/../../../../avr/include/util/delay.h **** 
  11:/usr/lib/gcc/avr/4.1.0/../../../../avr/include/util/delay.h ****    * Redistributions in binary form must reproduce the above copyright
  12:/usr/lib/gcc/avr/4.1.0/../../../../avr/include/util/delay.h ****      notice, this list of conditions and the following disclaimer in
  13:/usr/lib/gcc/avr/4.1.0/../../../../avr/include/util/delay.h ****      the documentation and/or other materials provided with the
  14:/usr/lib/gcc/avr/4.1.0/../../../../avr/include/util/delay.h ****      distribution.
  15:/usr/lib/gcc/avr/4.1.0/../../../../avr/include/util/delay.h **** 
  16:/usr/lib/gcc/avr/4.1.0/../../../../avr/include/util/delay.h ****    * Neither the name of the copyright holders nor the names of
  17:/usr/lib/gcc/avr/4.1.0/../../../../avr/include/util/delay.h ****      contributors may be used to endorse or promote products derived
  18:/usr/lib/gcc/avr/4.1.0/../../../../avr/include/util/delay.h ****      from this software without specific prior written permission.
  19:/usr/lib/gcc/avr/4.1.0/../../../../avr/include/util/delay.h **** 
  20:/usr/lib/gcc/avr/4.1.0/../../../../avr/include/util/delay.h ****   THIS SOFTWARE IS PROVIDED BY THE COPYRIGHT HOLDERS AND CONTRIBUTORS "AS IS"
  21:/usr/lib/gcc/avr/4.1.0/../../../../avr/include/util/delay.h ****   AND ANY EXPRESS OR IMPLIED WARRANTIES, INCLUDING, BUT NOT LIMITED TO, THE
  22:/usr/lib/gcc/avr/4.1.0/../../../../avr/include/util/delay.h ****   IMPLIED WARRANTIES OF MERCHANTABILITY AND FITNESS FOR A PARTICULAR PURPOSE
  23:/usr/lib/gcc/avr/4.1.0/../../../../avr/include/util/delay.h ****   ARE DISCLAIMED. IN NO EVENT SHALL THE COPYRIGHT OWNER OR CONTRIBUTORS BE
  24:/usr/lib/gcc/avr/4.1.0/../../../../avr/include/util/delay.h ****   LIABLE FOR ANY DIRECT, INDIRECT, INCIDENTAL, SPECIAL, EXEMPLARY, OR
  25:/usr/lib/gcc/avr/4.1.0/../../../../avr/include/util/delay.h ****   CONSEQUENTIAL DAMAGES (INCLUDING, BUT NOT LIMITED TO, PROCUREMENT OF
  26:/usr/lib/gcc/avr/4.1.0/../../../../avr/include/util/delay.h ****   SUBSTITUTE GOODS OR SERVICES; LOSS OF USE, DATA, OR PROFITS; OR BUSINESS
  27:/usr/lib/gcc/avr/4.1.0/../../../../avr/include/util/delay.h ****   INTERRUPTION) HOWEVER CAUSED AND ON ANY THEORY OF LIABILITY, WHETHER IN
  28:/usr/lib/gcc/avr/4.1.0/../../../../avr/include/util/delay.h ****   CONTRACT, STRICT LIABILITY, OR TORT (INCLUDING NEGLIGENCE OR OTHERWISE)
  29:/usr/lib/gcc/avr/4.1.0/../../../../avr/include/util/delay.h ****   ARISING IN ANY WAY OUT OF THE USE OF THIS SOFTWARE, EVEN IF ADVISED OF THE
  30:/usr/lib/gcc/avr/4.1.0/../../../../avr/include/util/delay.h ****   POSSIBILITY OF SUCH DAMAGE. */
  31:/usr/lib/gcc/avr/4.1.0/../../../../avr/include/util/delay.h **** 
  32:/usr/lib/gcc/avr/4.1.0/../../../../avr/include/util/delay.h **** /* $Id: delay.h,v 1.1.2.1 2005/12/12 23:19:49 joerg_wunsch Exp $ */
  33:/usr/lib/gcc/avr/4.1.0/../../../../avr/include/util/delay.h **** 
  34:/usr/lib/gcc/avr/4.1.0/../../../../avr/include/util/delay.h **** #ifndef _UTIL_DELAY_H_
  35:/usr/lib/gcc/avr/4.1.0/../../../../avr/include/util/delay.h **** #define _UTIL_DELAY_H_ 1
  36:/usr/lib/gcc/avr/4.1.0/../../../../avr/include/util/delay.h **** 
  37:/usr/lib/gcc/avr/4.1.0/../../../../avr/include/util/delay.h **** #include <inttypes.h>
  38:/usr/lib/gcc/avr/4.1.0/../../../../avr/include/util/delay.h **** 
  39:/usr/lib/gcc/avr/4.1.0/../../../../avr/include/util/delay.h **** /** \defgroup util_delay <util/delay.h>: Busy-wait delay loops
  40:/usr/lib/gcc/avr/4.1.0/../../../../avr/include/util/delay.h ****     \code
  41:/usr/lib/gcc/avr/4.1.0/../../../../avr/include/util/delay.h ****     #define F_CPU 1000000UL  // 1 MHz
  42:/usr/lib/gcc/avr/4.1.0/../../../../avr/include/util/delay.h ****     //#define F_CPU 14.7456E6
  43:/usr/lib/gcc/avr/4.1.0/../../../../avr/include/util/delay.h ****     #include <util/delay.h>
  44:/usr/lib/gcc/avr/4.1.0/../../../../avr/include/util/delay.h ****     \endcode
  45:/usr/lib/gcc/avr/4.1.0/../../../../avr/include/util/delay.h **** 
  46:/usr/lib/gcc/avr/4.1.0/../../../../avr/include/util/delay.h ****     \note As an alternative method, it is possible to pass the
  47:/usr/lib/gcc/avr/4.1.0/../../../../avr/include/util/delay.h ****     F_CPU macro down to the compiler from the Makefile.
  48:/usr/lib/gcc/avr/4.1.0/../../../../avr/include/util/delay.h ****     Obviously, in that case, no \c \#define statement should be
  49:/usr/lib/gcc/avr/4.1.0/../../../../avr/include/util/delay.h ****     used.
  50:/usr/lib/gcc/avr/4.1.0/../../../../avr/include/util/delay.h **** 
  51:/usr/lib/gcc/avr/4.1.0/../../../../avr/include/util/delay.h ****     The functions in this header file implement simple delay loops
  52:/usr/lib/gcc/avr/4.1.0/../../../../avr/include/util/delay.h ****     that perform a busy-waiting.  They are typically used to
  53:/usr/lib/gcc/avr/4.1.0/../../../../avr/include/util/delay.h ****     facilitate short delays in the program execution.  They are
  54:/usr/lib/gcc/avr/4.1.0/../../../../avr/include/util/delay.h ****     implemented as count-down loops with a well-known CPU cycle
  55:/usr/lib/gcc/avr/4.1.0/../../../../avr/include/util/delay.h ****     count per loop iteration.  As such, no other processing can
  56:/usr/lib/gcc/avr/4.1.0/../../../../avr/include/util/delay.h ****     occur simultaneously.  It should be kept in mind that the
  57:/usr/lib/gcc/avr/4.1.0/../../../../avr/include/util/delay.h ****     functions described here do not disable interrupts.
  58:/usr/lib/gcc/avr/4.1.0/../../../../avr/include/util/delay.h **** 
  59:/usr/lib/gcc/avr/4.1.0/../../../../avr/include/util/delay.h ****     In general, for long delays, the use of hardware timers is
  60:/usr/lib/gcc/avr/4.1.0/../../../../avr/include/util/delay.h ****     much preferrable, as they free the CPU, and allow for
  61:/usr/lib/gcc/avr/4.1.0/../../../../avr/include/util/delay.h ****     concurrent processing of other events while the timer is
  62:/usr/lib/gcc/avr/4.1.0/../../../../avr/include/util/delay.h ****     running.  However, in particular for very short delays, the
  63:/usr/lib/gcc/avr/4.1.0/../../../../avr/include/util/delay.h ****     overhead of setting up a hardware timer is too much compared
  64:/usr/lib/gcc/avr/4.1.0/../../../../avr/include/util/delay.h ****     to the overall delay time.
  65:/usr/lib/gcc/avr/4.1.0/../../../../avr/include/util/delay.h **** 
  66:/usr/lib/gcc/avr/4.1.0/../../../../avr/include/util/delay.h ****     Two inline functions are provided for the actual delay algorithms.
  67:/usr/lib/gcc/avr/4.1.0/../../../../avr/include/util/delay.h **** 
  68:/usr/lib/gcc/avr/4.1.0/../../../../avr/include/util/delay.h ****     Two wrapper functions allow the specification of microsecond, and
  69:/usr/lib/gcc/avr/4.1.0/../../../../avr/include/util/delay.h ****     millisecond delays directly, using the application-supplied macro
  70:/usr/lib/gcc/avr/4.1.0/../../../../avr/include/util/delay.h ****     F_CPU as the CPU clock frequency (in Hertz).  These functions
  71:/usr/lib/gcc/avr/4.1.0/../../../../avr/include/util/delay.h ****     operate on double typed arguments, however when optimization is
  72:/usr/lib/gcc/avr/4.1.0/../../../../avr/include/util/delay.h ****     turned on, the entire floating-point calculation will be done at
  73:/usr/lib/gcc/avr/4.1.0/../../../../avr/include/util/delay.h ****     compile-time.
  74:/usr/lib/gcc/avr/4.1.0/../../../../avr/include/util/delay.h **** 
  75:/usr/lib/gcc/avr/4.1.0/../../../../avr/include/util/delay.h ****     \note When using _delay_us() and _delay_ms(), the expressions
  76:/usr/lib/gcc/avr/4.1.0/../../../../avr/include/util/delay.h ****     passed as arguments to these functions shall be compile-time
  77:/usr/lib/gcc/avr/4.1.0/../../../../avr/include/util/delay.h ****     constants, otherwise the floating-point calculations to setup the
  78:/usr/lib/gcc/avr/4.1.0/../../../../avr/include/util/delay.h ****     loops will be done at run-time, thereby drastically increasing
  79:/usr/lib/gcc/avr/4.1.0/../../../../avr/include/util/delay.h ****     both the resulting code size, as well as the time required to
  80:/usr/lib/gcc/avr/4.1.0/../../../../avr/include/util/delay.h ****     setup the loops.
  81:/usr/lib/gcc/avr/4.1.0/../../../../avr/include/util/delay.h **** */
  82:/usr/lib/gcc/avr/4.1.0/../../../../avr/include/util/delay.h **** 
  83:/usr/lib/gcc/avr/4.1.0/../../../../avr/include/util/delay.h **** #if !defined(__DOXYGEN__)
  84:/usr/lib/gcc/avr/4.1.0/../../../../avr/include/util/delay.h **** static inline void _delay_loop_1(uint8_t __count) __attribute__((always_inline));
  85:/usr/lib/gcc/avr/4.1.0/../../../../avr/include/util/delay.h **** static inline void _delay_loop_2(uint16_t __count) __attribute__((always_inline));
  86:/usr/lib/gcc/avr/4.1.0/../../../../avr/include/util/delay.h **** static inline void _delay_us(double __us) __attribute__((always_inline));
  87:/usr/lib/gcc/avr/4.1.0/../../../../avr/include/util/delay.h **** static inline void _delay_ms(double __ms) __attribute__((always_inline));
  88:/usr/lib/gcc/avr/4.1.0/../../../../avr/include/util/delay.h **** #endif
  89:/usr/lib/gcc/avr/4.1.0/../../../../avr/include/util/delay.h **** 
  90:/usr/lib/gcc/avr/4.1.0/../../../../avr/include/util/delay.h **** /** \ingroup util_delay
  91:/usr/lib/gcc/avr/4.1.0/../../../../avr/include/util/delay.h **** 
  92:/usr/lib/gcc/avr/4.1.0/../../../../avr/include/util/delay.h ****     Delay loop using an 8-bit counter \c __count, so up to 256
  93:/usr/lib/gcc/avr/4.1.0/../../../../avr/include/util/delay.h ****     iterations are possible.  (The value 256 would have to be passed
  94:/usr/lib/gcc/avr/4.1.0/../../../../avr/include/util/delay.h ****     as 0.)  The loop executes three CPU cycles per iteration, not
  95:/usr/lib/gcc/avr/4.1.0/../../../../avr/include/util/delay.h ****     including the overhead the compiler needs to setup the counter
  96:/usr/lib/gcc/avr/4.1.0/../../../../avr/include/util/delay.h ****     register.
  97:/usr/lib/gcc/avr/4.1.0/../../../../avr/include/util/delay.h **** 
  98:/usr/lib/gcc/avr/4.1.0/../../../../avr/include/util/delay.h ****     Thus, at a CPU speed of 1 MHz, delays of up to 768 microseconds
  99:/usr/lib/gcc/avr/4.1.0/../../../../avr/include/util/delay.h ****     can be achieved.
 100:/usr/lib/gcc/avr/4.1.0/../../../../avr/include/util/delay.h **** */
 101:/usr/lib/gcc/avr/4.1.0/../../../../avr/include/util/delay.h **** void
 102:/usr/lib/gcc/avr/4.1.0/../../../../avr/include/util/delay.h **** _delay_loop_1(uint8_t __count)
 103:/usr/lib/gcc/avr/4.1.0/../../../../avr/include/util/delay.h **** {
 104:/usr/lib/gcc/avr/4.1.0/../../../../avr/include/util/delay.h **** 	__asm__ volatile (
 105:/usr/lib/gcc/avr/4.1.0/../../../../avr/include/util/delay.h **** 		"1: dec %0" "\n\t"
 106:/usr/lib/gcc/avr/4.1.0/../../../../avr/include/util/delay.h **** 		"brne 1b"
 107:/usr/lib/gcc/avr/4.1.0/../../../../avr/include/util/delay.h **** 		: "=r" (__count)
 108:/usr/lib/gcc/avr/4.1.0/../../../../avr/include/util/delay.h **** 		: "0" (__count)
 109:/usr/lib/gcc/avr/4.1.0/../../../../avr/include/util/delay.h **** 	);
 110:/usr/lib/gcc/avr/4.1.0/../../../../avr/include/util/delay.h **** }
 111:/usr/lib/gcc/avr/4.1.0/../../../../avr/include/util/delay.h **** 
 112:/usr/lib/gcc/avr/4.1.0/../../../../avr/include/util/delay.h **** /** \ingroup util_delay
 113:/usr/lib/gcc/avr/4.1.0/../../../../avr/include/util/delay.h **** 
 114:/usr/lib/gcc/avr/4.1.0/../../../../avr/include/util/delay.h ****     Delay loop using a 16-bit counter \c __count, so up to 65536
 115:/usr/lib/gcc/avr/4.1.0/../../../../avr/include/util/delay.h ****     iterations are possible.  (The value 65536 would have to be
 116:/usr/lib/gcc/avr/4.1.0/../../../../avr/include/util/delay.h ****     passed as 0.)  The loop executes four CPU cycles per iteration,
 117:/usr/lib/gcc/avr/4.1.0/../../../../avr/include/util/delay.h ****     not including the overhead the compiler requires to setup the
 118:/usr/lib/gcc/avr/4.1.0/../../../../avr/include/util/delay.h ****     counter register pair.
 119:/usr/lib/gcc/avr/4.1.0/../../../../avr/include/util/delay.h **** 
 120:/usr/lib/gcc/avr/4.1.0/../../../../avr/include/util/delay.h ****     Thus, at a CPU speed of 1 MHz, delays of up to about 262.1
 121:/usr/lib/gcc/avr/4.1.0/../../../../avr/include/util/delay.h ****     milliseconds can be achieved.
 122:/usr/lib/gcc/avr/4.1.0/../../../../avr/include/util/delay.h ****  */
 123:/usr/lib/gcc/avr/4.1.0/../../../../avr/include/util/delay.h **** void
 124:/usr/lib/gcc/avr/4.1.0/../../../../avr/include/util/delay.h **** _delay_loop_2(uint16_t __count)
 125:/usr/lib/gcc/avr/4.1.0/../../../../avr/include/util/delay.h **** {
 126:/usr/lib/gcc/avr/4.1.0/../../../../avr/include/util/delay.h **** 	__asm__ volatile (
 183               	.LM6:
 184 000c 80E6      		ldi r24,lo8(2400)
 185 000e 99E0      		ldi r25,hi8(2400)
 186               	/* #APP */
 187 0010 0197      		1: sbiw r24,1
 188 0012 F1F7      		brne 1b
 189               	/* #NOAPP */
 190               	.LBE21:
 191               	.LBE20:
 193               	.Ltext2:
  64:onewire/onewire.c **** 
  65:onewire/onewire.c ****     /* wait 480us */
  66:onewire/onewire.c ****     _delay_loop_2(OW_RESET_TIMEOUT_1);
  67:onewire/onewire.c **** 
  68:onewire/onewire.c ****     /* release bus */
  69:onewire/onewire.c ****     OW_HIGH();
 195               	.LM7:
 196 0014 5E9A      		sbi 43-0x20,6
  70:onewire/onewire.c ****     OW_CONFIG_INPUT();
 198               	.LM8:
 199 0016 5E9A      		sbi 43-0x20,6
 200 0018 5698      		cbi 42-0x20,6
 201               	.LBB22:
 202               	.LBB23:
 204               	.Ltext3:
 206               	.LM9:
 207 001a 82EC      		ldi r24,lo8(450)
 208 001c 91E0      		ldi r25,hi8(450)
 209               	/* #APP */
 210 001e 0197      		1: sbiw r24,1
 211 0020 F1F7      		brne 1b
 212               	/* #NOAPP */
 213               	.LBE23:
 214               	.LBE22:
 216               	.Ltext4:
  71:onewire/onewire.c **** 
  72:onewire/onewire.c ****     /* wait 60us (maximal pause) + 30 us (half minimum pulse) */
  73:onewire/onewire.c ****     _delay_loop_2(OW_RESET_TIMEOUT_2);
  74:onewire/onewire.c **** 
  75:onewire/onewire.c ****     /* sample data */
  76:onewire/onewire.c ****     uint8_t data1 = OW_GET_INPUT();
 218               	.LM10:
 219 0022 29B1      		in r18,41-0x20
 220               	.LBB24:
 221               	.LBB25:
 223               	.Ltext5:
 225               	.LM11:
 226 0024 8EE9      		ldi r24,lo8(1950)
 227 0026 97E0      		ldi r25,hi8(1950)
 228               	/* #APP */
 229 0028 0197      		1: sbiw r24,1
 230 002a F1F7      		brne 1b
 231               	/* #NOAPP */
 232               	.LBE25:
 233               	.LBE24:
 235               	.Ltext6:
  77:onewire/onewire.c **** 
  78:onewire/onewire.c ****     /* wait 390us */
  79:onewire/onewire.c ****     _delay_loop_2(OW_RESET_TIMEOUT_3);
  80:onewire/onewire.c **** 
  81:onewire/onewire.c ****     /* sample data again */
  82:onewire/onewire.c ****     uint8_t data2 = OW_GET_INPUT();
 237               	.LM12:
 238 002c 89B1      		in r24,41-0x20
  83:onewire/onewire.c **** 
  84:onewire/onewire.c ****     /* if first sample is low and second sample is high, at least one device is
  85:onewire/onewire.c ****      * attached to this bus */
  86:onewire/onewire.c ****     return !data1 && data2;
 240               	.LM13:
 241 002e 26FF      		sbrs r18,6
 242 0030 03C0      		rjmp .L4
 244               	.LM14:
 245 0032 80E0      		ldi r24,lo8(0)
 246 0034 90E0      		ldi r25,hi8(0)
 247 0036 0895      		ret
 248               	.L4:
 249 0038 90E0      		ldi r25,lo8(0)
 250 003a 86FF      		sbrs r24,6
 251 003c 91E0      		ldi r25,lo8(1)
 252               	.L7:
 253 003e 81E0      		ldi r24,lo8(1)
 254 0040 9827      		eor r25,r24
 255 0042 892F      		mov r24,r25
 256 0044 9927      		clr r25
  87:onewire/onewire.c **** 
  88:onewire/onewire.c **** } /* }}} */
 258               	.LM15:
 259 0046 0895      		ret
 260               	/* epilogue: frame size=0 */
 261               	/* epilogue: noreturn */
 262               	/* epilogue end (size=0) */
 263               	/* function reset_onewire size 39 (39) */
 274               	.Lscope1:
 276               		.stabd	78,0,0
 278               	.global	ow_write_0
 280               	ow_write_0:
 281               		.stabd	46,0,0
  89:onewire/onewire.c **** 
  90:onewire/onewire.c **** void ow_write_0(void)
  91:onewire/onewire.c **** /* {{{ */ {
 283               	.LM16:
 284               	/* prologue: frame size=0 */
 285               	/* prologue end (size=0) */
  92:onewire/onewire.c **** 
  93:onewire/onewire.c ****     /* a write 0 timeslot is initiated by holding the data line low for
  94:onewire/onewire.c ****      * approximately 80us */
  95:onewire/onewire.c **** 
  96:onewire/onewire.c ****     OW_LOW();
 287               	.LM17:
 288 0048 5E98      		cbi 43-0x20,6
 289               	.LBB26:
 290               	.LBB27:
 292               	.Ltext7:
 294               	.LM18:
 295 004a 84EA      		ldi r24,lo8(420)
 296 004c 91E0      		ldi r25,hi8(420)
 297               	/* #APP */
 298 004e 0197      		1: sbiw r24,1
 299 0050 F1F7      		brne 1b
 300               	/* #NOAPP */
 301               	.LBE27:
 302               	.LBE26:
 304               	.Ltext8:
  97:onewire/onewire.c ****     _delay_loop_2(OW_WRITE_0_TIMEOUT);
  98:onewire/onewire.c ****     OW_HIGH();
 306               	.LM19:
 307 0052 5E9A      		sbi 43-0x20,6
 308               	/* epilogue: frame size=0 */
 309 0054 0895      		ret
 310               	/* epilogue end (size=1) */
 311               	/* function ow_write_0 size 9 (8) */
 316               	.Lscope2:
 318               		.stabd	78,0,0
 320               	.global	ow_write_1
 322               	ow_write_1:
 323               		.stabd	46,0,0
  99:onewire/onewire.c **** 
 100:onewire/onewire.c **** } /* }}} */
 101:onewire/onewire.c **** 
 102:onewire/onewire.c **** void ow_write_1(void)
 103:onewire/onewire.c **** /* {{{ */ {
 325               	.LM20:
 326               	/* prologue: frame size=0 */
 327               	/* prologue end (size=0) */
 104:onewire/onewire.c **** 
 105:onewire/onewire.c ****     /* a write 1 timeslot is initiated by holding the data line low for
 106:onewire/onewire.c ****      * approximately 4us, then restore the idle state and wait at least 80us */
 107:onewire/onewire.c **** 
 108:onewire/onewire.c ****     OW_LOW();
 329               	.LM21:
 330 0056 5E98      		cbi 43-0x20,6
 331               	.LBB28:
 332               	.LBB29:
 334               	.Ltext9:
 336               	.LM22:
 337 0058 84E1      		ldi r24,lo8(20)
 338 005a 90E0      		ldi r25,hi8(20)
 339               	/* #APP */
 340 005c 0197      		1: sbiw r24,1
 341 005e F1F7      		brne 1b
 342               	/* #NOAPP */
 343               	.LBE29:
 344               	.LBE28:
 346               	.Ltext10:
 109:onewire/onewire.c ****     _delay_loop_2(OW_WRITE_1_TIMEOUT_1);
 110:onewire/onewire.c ****     OW_HIGH();
 348               	.LM23:
 349 0060 5E9A      		sbi 43-0x20,6
 350               	.LBB30:
 351               	.LBB31:
 353               	.Ltext11:
 355               	.LM24:
 356 0062 80E9      		ldi r24,lo8(400)
 357 0064 91E0      		ldi r25,hi8(400)
 358               	/* #APP */
 359 0066 0197      		1: sbiw r24,1
 360 0068 F1F7      		brne 1b
 361               	/* #NOAPP */
 362               	.LBE31:
 363               	.LBE30:
 364               	/* epilogue: frame size=0 */
 365 006a 0895      		ret
 366               	/* epilogue end (size=1) */
 367               	/* function ow_write_1 size 15 (14) */
 375               	.Lscope3:
 377               		.stabd	78,0,0
 379               	.global	ow_read
 381               	ow_read:
 382               		.stabd	46,0,0
 384               	.Ltext12:
 111:onewire/onewire.c ****     _delay_loop_2(OW_WRITE_1_TIMEOUT_2);
 112:onewire/onewire.c **** 
 113:onewire/onewire.c **** } /* }}} */
 114:onewire/onewire.c **** 
 115:onewire/onewire.c **** void ow_write(uint8_t value)
 116:onewire/onewire.c **** /* {{{ */ {
 117:onewire/onewire.c **** 
 118:onewire/onewire.c ****     if (value > 0)
 119:onewire/onewire.c ****         ow_write_1();
 120:onewire/onewire.c ****     else
 121:onewire/onewire.c ****         ow_write_0();
 122:onewire/onewire.c **** 
 123:onewire/onewire.c **** } /* }}} */
 124:onewire/onewire.c **** 
 125:onewire/onewire.c **** void ow_write_byte(uint8_t value)
 126:onewire/onewire.c **** /* {{{ */ {
 127:onewire/onewire.c **** 
 128:onewire/onewire.c ****     OW_CONFIG_OUTPUT();
 129:onewire/onewire.c ****     for (uint8_t i = 0; i < 8; i++) {
 130:onewire/onewire.c **** 
 131:onewire/onewire.c ****         ow_write(value & _BV(i));
 132:onewire/onewire.c ****     }
 133:onewire/onewire.c **** 
 134:onewire/onewire.c **** } /* }}} */
 135:onewire/onewire.c **** 
 136:onewire/onewire.c **** /* FIXME: (optimization) combine ow_write_1() and ow_read(), as they are very similar */
 137:onewire/onewire.c **** uint8_t ow_read(void)
 138:onewire/onewire.c **** /* {{{ */ {
 386               	.LM25:
 387               	/* prologue: frame size=0 */
 388               	/* prologue end (size=0) */
 139:onewire/onewire.c **** 
 140:onewire/onewire.c ****     /* a read timeslot is sent by holding the data line low for
 141:onewire/onewire.c ****      * 1us, then wait approximately 14us, then sample data and
 142:onewire/onewire.c ****      * wait  */
 143:onewire/onewire.c **** 
 144:onewire/onewire.c ****     OW_CONFIG_OUTPUT();
 390               	.LM26:
 391 006c 569A      		sbi 42-0x20,6
 145:onewire/onewire.c ****     OW_LOW();
 393               	.LM27:
 394 006e 5E98      		cbi 43-0x20,6
 395               	.LBB32:
 396               	.LBB33:
 398               	.Ltext13:
 400               	.LM28:
 401 0070 85E0      		ldi r24,lo8(5)
 402 0072 90E0      		ldi r25,hi8(5)
 403               	/* #APP */
 404 0074 0197      		1: sbiw r24,1
 405 0076 F1F7      		brne 1b
 406               	/* #NOAPP */
 407               	.LBE33:
 408               	.LBE32:
 410               	.Ltext14:
 146:onewire/onewire.c **** 
 147:onewire/onewire.c ****     _delay_loop_2(OW_READ_TIMEOUT_1);
 148:onewire/onewire.c **** 
 149:onewire/onewire.c ****     OW_HIGH();
 412               	.LM29:
 413 0078 5E9A      		sbi 43-0x20,6
 150:onewire/onewire.c ****     OW_CONFIG_INPUT();
 415               	.LM30:
 416 007a 5E9A      		sbi 43-0x20,6
 417 007c 5698      		cbi 42-0x20,6
 418               	.LBB34:
 419               	.LBB35:
 421               	.Ltext15:
 423               	.LM31:
 424 007e 86E4      		ldi r24,lo8(70)
 425 0080 90E0      		ldi r25,hi8(70)
 426               	/* #APP */
 427 0082 0197      		1: sbiw r24,1
 428 0084 F1F7      		brne 1b
 429               	/* #NOAPP */
 430               	.LBE35:
 431               	.LBE34:
 433               	.Ltext16:
 151:onewire/onewire.c **** 
 152:onewire/onewire.c ****     _delay_loop_2(OW_READ_TIMEOUT_2);
 153:onewire/onewire.c **** 
 154:onewire/onewire.c ****     /* sample data now */
 155:onewire/onewire.c ****     uint8_t data = OW_GET_INPUT();
 435               	.LM32:
 436 0086 29B1      		in r18,41-0x20
 437               	.LBB36:
 438               	.LBB37:
 440               	.Ltext17:
 442               	.LM33:
 443 0088 85E4      		ldi r24,lo8(325)
 444 008a 91E0      		ldi r25,hi8(325)
 445               	/* #APP */
 446 008c 0197      		1: sbiw r24,1
 447 008e F1F7      		brne 1b
 448               	/* #NOAPP */
 449 0090 80E0      		ldi r24,lo8(0)
 450 0092 90E0      		ldi r25,hi8(0)
 451 0094 26FF      		sbrs r18,6
 452 0096 02C0      		rjmp .L14
 454               	.LM34:
 455 0098 81E0      		ldi r24,lo8(1)
 456 009a 90E0      		ldi r25,hi8(1)
 457               	.L14:
 458               	.LBE37:
 459               	.LBE36:
 461               	.Ltext18:
 156:onewire/onewire.c **** 
 157:onewire/onewire.c ****     /* wait for remaining slot time */
 158:onewire/onewire.c ****     _delay_loop_2(OW_READ_TIMEOUT_3);
 159:onewire/onewire.c **** 
 160:onewire/onewire.c ****     return data;
 161:onewire/onewire.c **** 
 162:onewire/onewire.c **** } /* }}} */
 463               	.LM35:
 464 009c 0895      		ret
 465               	/* epilogue: frame size=0 */
 466               	/* epilogue: noreturn */
 467               	/* epilogue end (size=0) */
 468               	/* function ow_read size 31 (31) */
 479               	.Lscope4:
 481               		.stabd	78,0,0
 486               	.global	ow_set_address_bit
 488               	ow_set_address_bit:
 489               		.stabd	46,0,0
 163:onewire/onewire.c **** 
 164:onewire/onewire.c **** 
 165:onewire/onewire.c **** 
 166:onewire/onewire.c **** /* mid-level functions */
 167:onewire/onewire.c **** int8_t ow_read_rom(struct ow_rom_code_t *rom)
 168:onewire/onewire.c **** /* {{{ */ {
 169:onewire/onewire.c **** 
 170:onewire/onewire.c ****     /* reset the bus */
 171:onewire/onewire.c ****     if (!reset_onewire())
 172:onewire/onewire.c ****         return -1;
 173:onewire/onewire.c **** 
 174:onewire/onewire.c ****     /* transmit command byte */
 175:onewire/onewire.c ****     ow_write_byte(OW_ROM_READ_ROM);
 176:onewire/onewire.c **** 
 177:onewire/onewire.c ****     /* read 64bit rom code */
 178:onewire/onewire.c ****     for (uint8_t i = 0; i < 8; i++) {
 179:onewire/onewire.c **** 
 180:onewire/onewire.c ****         /* read byte */
 181:onewire/onewire.c ****         rom->bytewise[i] = 0;
 182:onewire/onewire.c ****         for (uint8_t j = 0; j < 8; j++) {
 183:onewire/onewire.c ****             rom->bytewise[i] |= (ow_read() << j);
 184:onewire/onewire.c ****         }
 185:onewire/onewire.c ****     }
 186:onewire/onewire.c **** 
 187:onewire/onewire.c ****     /* check CRC (last byte) */
 188:onewire/onewire.c ****     if (rom->crc != crc_checksum(rom->bytewise, 7))
 189:onewire/onewire.c ****         return -2;
 190:onewire/onewire.c **** 
 191:onewire/onewire.c ****     return 1;
 192:onewire/onewire.c **** 
 193:onewire/onewire.c **** } /* }}} */
 194:onewire/onewire.c **** 
 195:onewire/onewire.c **** int8_t ow_skip_rom(void)
 196:onewire/onewire.c **** /* {{{ */ {
 197:onewire/onewire.c **** 
 198:onewire/onewire.c ****     /* reset the bus */
 199:onewire/onewire.c ****     if (!reset_onewire())
 200:onewire/onewire.c ****         return -1;
 201:onewire/onewire.c **** 
 202:onewire/onewire.c ****     /* transmit command byte */
 203:onewire/onewire.c ****     ow_write_byte(OW_ROM_SKIP_ROM);
 204:onewire/onewire.c **** 
 205:onewire/onewire.c ****     return 1;
 206:onewire/onewire.c **** 
 207:onewire/onewire.c **** } /* }}} */
 208:onewire/onewire.c **** 
 209:onewire/onewire.c **** int8_t ow_match_rom(struct ow_rom_code_t *rom)
 210:onewire/onewire.c **** /* {{{ */ {
 211:onewire/onewire.c **** 
 212:onewire/onewire.c ****     /* reset the bus */
 213:onewire/onewire.c ****     if (!reset_onewire())
 214:onewire/onewire.c ****         return -1;
 215:onewire/onewire.c **** 
 216:onewire/onewire.c ****     /* transmit command byte */
 217:onewire/onewire.c ****     ow_write_byte(OW_ROM_MATCH_ROM);
 218:onewire/onewire.c **** 
 219:onewire/onewire.c ****     /* transmit rom code */
 220:onewire/onewire.c ****     for (uint8_t i = 0; i < 8; i++) {
 221:onewire/onewire.c **** 
 222:onewire/onewire.c ****         for (uint8_t j = 0; j < 8; j++)
 223:onewire/onewire.c ****             ow_write(rom->bytewise[i] & _BV(j));
 224:onewire/onewire.c **** 
 225:onewire/onewire.c ****     }
 226:onewire/onewire.c **** 
 227:onewire/onewire.c ****     return 1;
 228:onewire/onewire.c **** 
 229:onewire/onewire.c **** } /* }}} */
 230:onewire/onewire.c **** 
 231:onewire/onewire.c **** 
 232:onewire/onewire.c **** void noinline ow_set_address_bit(struct ow_rom_code_t *rom, uint8_t idx, uint8_t val);
 233:onewire/onewire.c **** void ow_set_address_bit(struct ow_rom_code_t *rom, uint8_t idx, uint8_t val)
 234:onewire/onewire.c **** /* {{{ */ {
 491               	.LM36:
 492               	/* prologue: frame size=0 */
 493               	/* prologue end (size=0) */
 494 009e FC01      		movw r30,r24
 235:onewire/onewire.c **** 
 236:onewire/onewire.c ****     uint8_t byte = idx / 8;
 237:onewire/onewire.c ****     uint8_t bit = idx % 8;
 496               	.LM37:
 497 00a0 862F      		mov r24,r22
 498 00a2 8770      		andi r24,lo8(7)
 499 00a4 6695      		lsr r22
 500 00a6 6695      		lsr r22
 501 00a8 6695      		lsr r22
 502 00aa 7727      		clr r23
 503 00ac 282F      		mov r18,r24
 504 00ae 3327      		clr r19
 238:onewire/onewire.c **** 
 239:onewire/onewire.c ****     if (val == 0)
 506               	.LM38:
 507 00b0 4423      		tst r20
 508 00b2 69F4      		brne .L17
 240:onewire/onewire.c ****         rom->bytewise[byte] &= ~_BV(bit);
 510               	.LM39:
 511 00b4 E60F      		add r30,r22
 512 00b6 F71F      		adc r31,r23
 513 00b8 81E0      		ldi r24,lo8(1)
 514 00ba 90E0      		ldi r25,hi8(1)
 515 00bc 02C0      		rjmp 2f
 516 00be 880F      	1:	lsl r24
 517 00c0 991F      		rol r25
 518 00c2 2A95      	2:	dec r18
 519 00c4 E2F7      		brpl 1b
 520 00c6 8095      		com r24
 521 00c8 2081      		ld r18,Z
 522 00ca 2823      		and r18,r24
 523 00cc 0BC0      		rjmp .L21
 524               	.L17:
 241:onewire/onewire.c ****     else
 242:onewire/onewire.c ****         rom->bytewise[byte] |= _BV(bit);
 526               	.LM40:
 527 00ce E60F      		add r30,r22
 528 00d0 F71F      		adc r31,r23
 529 00d2 81E0      		ldi r24,lo8(1)
 530 00d4 90E0      		ldi r25,hi8(1)
 531 00d6 02C0      		rjmp 2f
 532 00d8 880F      	1:	lsl r24
 533 00da 991F      		rol r25
 534 00dc 2A95      	2:	dec r18
 535 00de E2F7      		brpl 1b
 536 00e0 2081      		ld r18,Z
 537 00e2 282B      		or r18,r24
 538               	.L21:
 539 00e4 2083      		st Z,r18
 540 00e6 0895      		ret
 541               	/* epilogue: frame size=0 */
 542               	/* epilogue: noreturn */
 543               	/* epilogue end (size=0) */
 544               	/* function ow_set_address_bit size 39 (39) */
 549               	.Lscope5:
 551               		.stabd	78,0,0
 554               	.global	ow_write
 556               	ow_write:
 557               		.stabd	46,0,0
 559               	.LM41:
 560               	/* prologue: frame size=0 */
 561               	/* prologue end (size=0) */
 563               	.LM42:
 564 00e8 8823      		tst r24
 565 00ea 59F0      		breq .L23
 566               	.LBB48:
 567               	.LBB49:
 569               	.LM43:
 570 00ec 5E98      		cbi 43-0x20,6
 571               	.LBB50:
 572               	.LBB51:
 574               	.Ltext19:
 576               	.LM44:
 577 00ee 84E1      		ldi r24,lo8(20)
 578 00f0 90E0      		ldi r25,hi8(20)
 579               	/* #APP */
 580 00f2 0197      		1: sbiw r24,1
 581 00f4 F1F7      		brne 1b
 582               	/* #NOAPP */
 583               	.LBE51:
 584               	.LBE50:
 586               	.Ltext20:
 588               	.LM45:
 589 00f6 5E9A      		sbi 43-0x20,6
 590               	.LBB52:
 591               	.LBB53:
 593               	.Ltext21:
 595               	.LM46:
 596 00f8 80E9      		ldi r24,lo8(400)
 597 00fa 91E0      		ldi r25,hi8(400)
 598               	/* #APP */
 599 00fc 0197      		1: sbiw r24,1
 600 00fe F1F7      		brne 1b
 601               	/* #NOAPP */
 602 0100 0895      		ret
 603               	.L23:
 604               	.LBE53:
 605               	.LBE52:
 606               	.LBE49:
 607               	.LBE48:
 608               	.LBB54:
 609               	.LBB55:
 611               	.Ltext22:
 613               	.LM47:
 614 0102 5E98      		cbi 43-0x20,6
 615               	.LBB56:
 616               	.LBB57:
 618               	.Ltext23:
 620               	.LM48:
 621 0104 84EA      		ldi r24,lo8(420)
 622 0106 91E0      		ldi r25,hi8(420)
 623               	/* #APP */
 624 0108 0197      		1: sbiw r24,1
 625 010a F1F7      		brne 1b
 626               	/* #NOAPP */
 627               	.LBE57:
 628               	.LBE56:
 630               	.Ltext24:
 632               	.LM49:
 633 010c 5E9A      		sbi 43-0x20,6
 634 010e 0895      		ret
 635               	.LBE55:
 636               	.LBE54:
 637               	/* epilogue: frame size=0 */
 638               	/* epilogue: noreturn */
 639               	/* epilogue end (size=0) */
 640               	/* function ow_write size 26 (26) */
 642               	.Lscope6:
 644               		.stabd	78,0,0
 647               	.global	ow_write_byte
 649               	ow_write_byte:
 650               		.stabd	46,0,0
 652               	.LM50:
 653               	/* prologue: frame size=0 */
 654 0110 CF93      		push r28
 655 0112 DF93      		push r29
 656               	/* prologue end (size=2) */
 657 0114 682F      		mov r22,r24
 659               	.LM51:
 660 0116 569A      		sbi 42-0x20,6
 661 0118 20E0      		ldi r18,lo8(0)
 662 011a 30E0      		ldi r19,hi8(0)
 663 011c 41E0      		ldi r20,lo8(1)
 664 011e 50E0      		ldi r21,hi8(1)
 665 0120 C4E1      		ldi r28,lo8(20)
 666 0122 D0E0      		ldi r29,hi8(20)
 667 0124 A0E9      		ldi r26,lo8(400)
 668 0126 B1E0      		ldi r27,hi8(400)
 669 0128 E4EA      		ldi r30,lo8(420)
 670 012a F1E0      		ldi r31,hi8(420)
 671               	.L28:
 672               	.LBB71:
 673               	.LBB72:
 674               	.LBB73:
 676               	.LM52:
 677 012c CA01      		movw r24,r20
 678 012e 022E      		mov r0,r18
 679 0130 02C0      		rjmp 2f
 680 0132 880F      	1:	lsl r24
 681 0134 991F      		rol r25
 682 0136 0A94      	2:	dec r0
 683 0138 E2F7      		brpl 1b
 684 013a 8623      		and r24,r22
 685 013c 49F0      		breq .L29
 686               	.LBB74:
 687               	.LBB75:
 689               	.LM53:
 690 013e 5E98      		cbi 43-0x20,6
 691               	.LBB76:
 692               	.LBB77:
 694               	.Ltext25:
 696               	.LM54:
 697 0140 CE01      		movw r24,r28
 698               	/* #APP */
 699 0142 0197      		1: sbiw r24,1
 700 0144 F1F7      		brne 1b
 701               	/* #NOAPP */
 702               	.LBE77:
 703               	.LBE76:
 705               	.Ltext26:
 707               	.LM55:
 708 0146 5E9A      		sbi 43-0x20,6
 709               	.LBB78:
 710               	.LBB79:
 712               	.Ltext27:
 714               	.LM56:
 715 0148 CD01      		movw r24,r26
 716               	/* #APP */
 717 014a 0197      		1: sbiw r24,1
 718 014c F1F7      		brne 1b
 719               	/* #NOAPP */
 720 014e 05C0      		rjmp .L31
 721               	.L29:
 722               	.LBE79:
 723               	.LBE78:
 724               	.LBE75:
 725               	.LBE74:
 726               	.LBB80:
 727               	.LBB81:
 729               	.Ltext28:
 731               	.LM57:
 732 0150 5E98      		cbi 43-0x20,6
 733               	.LBB82:
 734               	.LBB83:
 736               	.Ltext29:
 738               	.LM58:
 739 0152 CF01      		movw r24,r30
 740               	/* #APP */
 741 0154 0197      		1: sbiw r24,1
 742 0156 F1F7      		brne 1b
 743               	/* #NOAPP */
 744               	.LBE83:
 745               	.LBE82:
 747               	.Ltext30:
 749               	.LM59:
 750 0158 5E9A      		sbi 43-0x20,6
 751               	.L31:
 752 015a 2F5F      		subi r18,lo8(-(1))
 753 015c 3F4F      		sbci r19,hi8(-(1))
 754               	.LBE81:
 755               	.LBE80:
 756               	.LBE73:
 757               	.LBE72:
 759               	.LM60:
 760 015e 2830      		cpi r18,8
 761 0160 3105      		cpc r19,__zero_reg__
 762 0162 21F7      		brne .L28
 763               	.LBE71:
 764               	/* epilogue: frame size=0 */
 765 0164 DF91      		pop r29
 766 0166 CF91      		pop r28
 767 0168 0895      		ret
 768               	/* epilogue end (size=3) */
 769               	/* function ow_write_byte size 52 (47) */
 771               	.Lscope7:
 773               		.stabd	78,0,0
 777               	.global	ow_search_rom
 779               	ow_search_rom:
 780               		.stabd	46,0,0
 243:onewire/onewire.c **** 
 244:onewire/onewire.c **** /* }}} */ }
 245:onewire/onewire.c **** 
 246:onewire/onewire.c **** /* high-level functions */
 247:onewire/onewire.c **** int8_t ow_search_rom(struct ow_rom_code_t roms[], uint8_t max)
 248:onewire/onewire.c **** /* {{{ */ {
 782               	.LM61:
 783               	/* prologue: frame size=0 */
 784 016a 5F92      		push r5
 785 016c 6F92      		push r6
 786 016e 7F92      		push r7
 787 0170 8F92      		push r8
 788 0172 9F92      		push r9
 789 0174 AF92      		push r10
 790 0176 BF92      		push r11
 791 0178 CF92      		push r12
 792 017a DF92      		push r13
 793 017c EF92      		push r14
 794 017e FF92      		push r15
 795 0180 0F93      		push r16
 796 0182 1F93      		push r17
 797 0184 CF93      		push r28
 798 0186 DF93      		push r29
 799               	/* prologue end (size=15) */
 800 0188 6C01      		movw r12,r24
 801 018a 562E      		mov r5,r22
 802 018c FC01      		movw r30,r24
 803 018e 0896      		adiw r24,8
 804               	.L37:
 805               	.LBB142:
 249:onewire/onewire.c **** 
 250:onewire/onewire.c ****     int8_t discrepancy;
 251:onewire/onewire.c ****     int8_t last_discrepancy = -1;
 252:onewire/onewire.c ****     uint8_t rom_index = 0;
 253:onewire/onewire.c **** 
 254:onewire/onewire.c ****     /* reset first rom code */
 255:onewire/onewire.c ****     for (uint8_t i = 0; i < 8; i++)
 256:onewire/onewire.c ****         roms[0].bytewise[i] = 0;
 807               	.LM62:
 808 0190 1192      		st Z+,__zero_reg__
 810               	.LM63:
 811 0192 E817      		cp r30,r24
 812 0194 F907      		cpc r31,r25
 813 0196 E1F7      		brne .L37
 814 0198 4FEF      		ldi r20,lo8(-1)
 815 019a 642E      		mov r6,r20
 816 019c 8824      		clr r8
 817 019e 9924      		clr r9
 818               	.L39:
 819 01a0 A82C      		mov r10,r8
 820               	.LBE142:
 257:onewire/onewire.c **** 
 258:onewire/onewire.c ****     do {
 259:onewire/onewire.c **** 
 260:onewire/onewire.c ****         /* copy old path used before */
 261:onewire/onewire.c ****         if (rom_index > 0) {
 822               	.LM64:
 823 01a2 8820      		tst r8
 824 01a4 A9F0      		breq .L40
 825               	.LBB143:
 262:onewire/onewire.c **** 
 263:onewire/onewire.c ****             for (uint8_t i = 0; i < 8; i++)
 264:onewire/onewire.c ****                 roms[rom_index].bytewise[i] = roms[rom_index-1].bytewise[i];
 827               	.LM65:
 828 01a6 882D      		mov r24,r8
 829 01a8 9927      		clr r25
 830 01aa 33E0      		ldi r19,3
 831 01ac 880F      	1:	lsl r24
 832 01ae 991F      		rol r25
 833 01b0 3A95      		dec r19
 834 01b2 E1F7      		brne 1b
 835 01b4 8C0D      		add r24,r12
 836 01b6 9D1D      		adc r25,r13
 837 01b8 20E0      		ldi r18,lo8(0)
 838 01ba 30E0      		ldi r19,hi8(0)
 839 01bc FC01      		movw r30,r24
 840 01be DC01      		movw r26,r24
 841 01c0 1897      		sbiw r26,8
 842               	.L42:
 843 01c2 8D91      		ld r24,X+
 844 01c4 8193      		st Z+,r24
 845 01c6 2F5F      		subi r18,lo8(-(1))
 846 01c8 3F4F      		sbci r19,hi8(-(1))
 848               	.LM66:
 849 01ca 2830      		cpi r18,8
 850 01cc 3105      		cpc r19,__zero_reg__
 851 01ce C9F7      		brne .L42
 852               	.L40:
 853               	.LBE143:
 265:onewire/onewire.c **** 
 266:onewire/onewire.c ****         }
 267:onewire/onewire.c **** 
 268:onewire/onewire.c ****         uart_puts_P("\r\npre-address: ");
 855               	.LM67:
 856 01d0 80E0      		ldi r24,lo8(__c.1953)
 857 01d2 90E0      		ldi r25,hi8(__c.1953)
 858 01d4 0E94 0000 		call uart_putf
 859               	.LBB144:
 269:onewire/onewire.c ****         for (uint8_t i = 0; i < 8; i++)
 270:onewire/onewire.c ****             uart_puthexbyte(roms[rom_index].bytewise[i]);
 861               	.LM68:
 862 01d8 EA2C      		mov r14,r10
 863 01da FF24      		clr r15
 864 01dc 23E0      		ldi r18,3
 865 01de EE0C      	1:	lsl r14
 866 01e0 FF1C      		rol r15
 867 01e2 2A95      		dec r18
 868 01e4 E1F7      		brne 1b
 869 01e6 EC0C      		add r14,r12
 870 01e8 FD1C      		adc r15,r13
 871 01ea C0E0      		ldi r28,lo8(0)
 872 01ec D0E0      		ldi r29,hi8(0)
 873 01ee 8701      		movw r16,r14
 874               	.L43:
 875 01f0 F801      		movw r30,r16
 876 01f2 8191      		ld r24,Z+
 877 01f4 8F01      		movw r16,r30
 878 01f6 0E94 0000 		call uart_puthexbyte
 879 01fa 2196      		adiw r28,1
 881               	.LM69:
 882 01fc C830      		cpi r28,8
 883 01fe D105      		cpc r29,__zero_reg__
 884 0200 B9F7      		brne .L43
 885               	.LBE144:
 271:onewire/onewire.c ****         uart_eol();
 887               	.LM70:
 888 0202 0E94 0000 		call uart_eol
 889               	.LBB145:
 890               	.LBB146:
 892               	.LM71:
 893 0206 569A      		sbi 42-0x20,6
 895               	.LM72:
 896 0208 5E98      		cbi 43-0x20,6
 897               	.LBB147:
 898               	.LBB148:
 900               	.Ltext31:
 902               	.LM73:
 903 020a 80E6      		ldi r24,lo8(2400)
 904 020c 99E0      		ldi r25,hi8(2400)
 905               	/* #APP */
 906 020e 0197      		1: sbiw r24,1
 907 0210 F1F7      		brne 1b
 908               	/* #NOAPP */
 909               	.LBE148:
 910               	.LBE147:
 912               	.Ltext32:
 914               	.LM74:
 915 0212 5E9A      		sbi 43-0x20,6
 917               	.LM75:
 918 0214 5E9A      		sbi 43-0x20,6
 919 0216 5698      		cbi 42-0x20,6
 920               	.LBB149:
 921               	.LBB150:
 923               	.Ltext33:
 925               	.LM76:
 926 0218 82EC      		ldi r24,lo8(450)
 927 021a 91E0      		ldi r25,hi8(450)
 928               	/* #APP */
 929 021c 0197      		1: sbiw r24,1
 930 021e F1F7      		brne 1b
 931               	/* #NOAPP */
 932               	.LBE150:
 933               	.LBE149:
 935               	.Ltext34:
 937               	.LM77:
 938 0220 29B1      		in r18,41-0x20
 939               	.LBB151:
 940               	.LBB152:
 942               	.Ltext35:
 944               	.LM78:
 945 0222 8EE9      		ldi r24,lo8(1950)
 946 0224 97E0      		ldi r25,hi8(1950)
 947               	/* #APP */
 948 0226 0197      		1: sbiw r24,1
 949 0228 F1F7      		brne 1b
 950               	/* #NOAPP */
 951               	.LBE152:
 952               	.LBE151:
 954               	.Ltext36:
 956               	.LM79:
 957 022a 89B1      		in r24,41-0x20
 959               	.LM80:
 960 022c 26FD      		sbrc r18,6
 961 022e C3C0      		rjmp .L45
 962 0230 86FF      		sbrs r24,6
 963 0232 C1C0      		rjmp .L45
 964               	.LBE146:
 965               	.LBE145:
 966               	.LBB153:
 967               	.LBB154:
 969               	.LM81:
 970 0234 569A      		sbi 42-0x20,6
 971 0236 20E0      		ldi r18,lo8(0)
 972 0238 30E0      		ldi r19,hi8(0)
 973 023a 41E0      		ldi r20,lo8(1)
 974 023c 50E0      		ldi r21,hi8(1)
 975 023e C4E1      		ldi r28,lo8(20)
 976 0240 D0E0      		ldi r29,hi8(20)
 977 0242 A0E9      		ldi r26,lo8(400)
 978 0244 B1E0      		ldi r27,hi8(400)
 979 0246 E4EA      		ldi r30,lo8(420)
 980 0248 F1E0      		ldi r31,hi8(420)
 981               	.L48:
 982               	.LBB155:
 983               	.LBB156:
 984               	.LBB157:
 986               	.LM82:
 987 024a CA01      		movw r24,r20
 988 024c 022E      		mov r0,r18
 989 024e 02C0      		rjmp 2f
 990 0250 880F      	1:	lsl r24
 991 0252 991F      		rol r25
 992 0254 0A94      	2:	dec r0
 993 0256 E2F7      		brpl 1b
 994 0258 807F      		andi r24,lo8(-16)
 995 025a 49F0      		breq .L49
 996               	.LBB158:
 997               	.LBB159:
 999               	.LM83:
 1000 025c 5E98      		cbi 43-0x20,6
 1001               	.LBB160:
 1002               	.LBB161:
 1004               	.Ltext37:
 1006               	.LM84:
 1007 025e CE01      		movw r24,r28
 1008               	/* #APP */
 1009 0260 0197      		1: sbiw r24,1
 1010 0262 F1F7      		brne 1b
 1011               	/* #NOAPP */
 1012               	.LBE161:
 1013               	.LBE160:
 1015               	.Ltext38:
 1017               	.LM85:
 1018 0264 5E9A      		sbi 43-0x20,6
 1019               	.LBB162:
 1020               	.LBB163:
 1022               	.Ltext39:
 1024               	.LM86:
 1025 0266 CD01      		movw r24,r26
 1026               	/* #APP */
 1027 0268 0197      		1: sbiw r24,1
 1028 026a F1F7      		brne 1b
 1029               	/* #NOAPP */
 1030 026c 05C0      		rjmp .L51
 1031               	.L49:
 1032               	.LBE163:
 1033               	.LBE162:
 1034               	.LBE159:
 1035               	.LBE158:
 1036               	.LBB164:
 1037               	.LBB165:
 1039               	.Ltext40:
 1041               	.LM87:
 1042 026e 5E98      		cbi 43-0x20,6
 1043               	.LBB166:
 1044               	.LBB167:
 1046               	.Ltext41:
 1048               	.LM88:
 1049 0270 CF01      		movw r24,r30
 1050               	/* #APP */
 1051 0272 0197      		1: sbiw r24,1
 1052 0274 F1F7      		brne 1b
 1053               	/* #NOAPP */
 1054               	.LBE167:
 1055               	.LBE166:
 1057               	.Ltext42:
 1059               	.LM89:
 1060 0276 5E9A      		sbi 43-0x20,6
 1061               	.L51:
 1062 0278 2F5F      		subi r18,lo8(-(1))
 1063 027a 3F4F      		sbci r19,hi8(-(1))
 1064               	.LBE165:
 1065               	.LBE164:
 1066               	.LBE157:
 1067               	.LBE156:
 1069               	.LM90:
 1070 027c 2830      		cpi r18,8
 1071 027e 3105      		cpc r19,__zero_reg__
 1072 0280 21F7      		brne .L48
 1073 0282 9FEF      		ldi r25,lo8(-1)
 1074 0284 792E      		mov r7,r25
 1075 0286 00E0      		ldi r16,lo8(0)
 1076 0288 10E0      		ldi r17,hi8(0)
 1077               	.L53:
 1078 028a 602F      		mov r22,r16
 1079               	.LBE155:
 1080               	.LBE154:
 1081               	.LBE153:
 1082               	.LBB168:
 1083               	.LBB169:
 1084               	.LBB170:
 1085               	.LBB171:
 1087               	.LM91:
 1088 028c 569A      		sbi 42-0x20,6
 1090               	.LM92:
 1091 028e 5E98      		cbi 43-0x20,6
 1092               	.LBB172:
 1093               	.LBB173:
 1095               	.Ltext43:
 1097               	.LM93:
 1098 0290 25E0      		ldi r18,lo8(5)
 1099 0292 30E0      		ldi r19,hi8(5)
 1100 0294 C901      		movw r24,r18
 1101               	/* #APP */
 1102 0296 0197      		1: sbiw r24,1
 1103 0298 F1F7      		brne 1b
 1104               	/* #NOAPP */
 1105               	.LBE173:
 1106               	.LBE172:
 1108               	.Ltext44:
 1110               	.LM94:
 1111 029a 5E9A      		sbi 43-0x20,6
 1113               	.LM95:
 1114 029c 5E9A      		sbi 43-0x20,6
 1115 029e 5698      		cbi 42-0x20,6
 1116               	.LBB174:
 1117               	.LBB175:
 1119               	.Ltext45:
 1121               	.LM96:
 1122 02a0 C6E4      		ldi r28,lo8(70)
 1123 02a2 D0E0      		ldi r29,hi8(70)
 1124 02a4 CE01      		movw r24,r28
 1125               	/* #APP */
 1126 02a6 0197      		1: sbiw r24,1
 1127 02a8 F1F7      		brne 1b
 1128               	/* #NOAPP */
 1129               	.LBE175:
 1130               	.LBE174:
 1132               	.Ltext46:
 1134               	.LM97:
 1135 02aa 89B1      		in r24,41-0x20
 1136               	.LBB176:
 1137               	.LBB177:
 1139               	.Ltext47:
 1141               	.LM98:
 1142 02ac A5E4      		ldi r26,lo8(325)
 1143 02ae B1E0      		ldi r27,hi8(325)
 1144 02b0 FD01      		movw r30,r26
 1145               	/* #APP */
 1146 02b2 3197      		1: sbiw r30,1
 1147 02b4 F1F7      		brne 1b
 1148               	/* #NOAPP */
 1149               	.LBE177:
 1150               	.LBE176:
 1151               	.LBE171:
 1152               	.LBE170:
 1154               	.Ltext48:
 272:onewire/onewire.c **** 
 273:onewire/onewire.c ****         discrepancy = -1;
 274:onewire/onewire.c **** 
 275:onewire/onewire.c ****         /* reset the bus */
 276:onewire/onewire.c ****         if (!reset_onewire())
 277:onewire/onewire.c ****             return -1;
 278:onewire/onewire.c **** 
 279:onewire/onewire.c ****         /* transmit command byte */
 280:onewire/onewire.c ****         ow_write_byte(OW_ROM_SEARCH_ROM);
 281:onewire/onewire.c **** 
 282:onewire/onewire.c ****         for (uint8_t i = 0; i <64; i++) {
 283:onewire/onewire.c **** 
 284:onewire/onewire.c ****             /* read bits */
 285:onewire/onewire.c ****             uint8_t bit1 = ow_read();
 1156               	.LM99:
 1157 02b6 40E0      		ldi r20,lo8(0)
 1158 02b8 50E0      		ldi r21,hi8(0)
 1159 02ba 86FF      		sbrs r24,6
 1160 02bc 02C0      		rjmp .L54
 1161 02be 41E0      		ldi r20,lo8(1)
 1162 02c0 50E0      		ldi r21,hi8(1)
 1163               	.L54:
 1164 02c2 B42E      		mov r11,r20
 1165               	.LBB178:
 1166               	.LBB179:
 1168               	.LM100:
 1169 02c4 569A      		sbi 42-0x20,6
 1171               	.LM101:
 1172 02c6 5E98      		cbi 43-0x20,6
 1173               	.LBB180:
 1174               	.LBB181:
 1176               	.Ltext49:
 1178               	.LM102:
 1179 02c8 C901      		movw r24,r18
 1180               	/* #APP */
 1181 02ca 0197      		1: sbiw r24,1
 1182 02cc F1F7      		brne 1b
 1183               	/* #NOAPP */
 1184               	.LBE181:
 1185               	.LBE180:
 1187               	.Ltext50:
 1189               	.LM103:
 1190 02ce 5E9A      		sbi 43-0x20,6
 1192               	.LM104:
 1193 02d0 5E9A      		sbi 43-0x20,6
 1194 02d2 5698      		cbi 42-0x20,6
 1195               	.LBB182:
 1196               	.LBB183:
 1198               	.Ltext51:
 1200               	.LM105:
 1201               	/* #APP */
 1202 02d4 2197      		1: sbiw r28,1
 1203 02d6 F1F7      		brne 1b
 1204               	/* #NOAPP */
 1205               	.LBE183:
 1206               	.LBE182:
 1208               	.Ltext52:
 1210               	.LM106:
 1211 02d8 89B1      		in r24,41-0x20
 1212               	.LBB184:
 1213               	.LBB185:
 1215               	.Ltext53:
 1217               	.LM107:
 1218               	/* #APP */
 1219 02da 1197      		1: sbiw r26,1
 1220 02dc F1F7      		brne 1b
 1221               	/* #NOAPP */
 1222               	.LBE185:
 1223               	.LBE184:
 1224               	.LBE179:
 1225               	.LBE178:
 1227               	.Ltext54:
 286:onewire/onewire.c ****             uint8_t bits = (ow_read() << 1) | bit1;
 1229               	.LM108:
 1230 02de 20E0      		ldi r18,lo8(0)
 1231 02e0 30E0      		ldi r19,hi8(0)
 1232 02e2 86FF      		sbrs r24,6
 1233 02e4 02C0      		rjmp .L55
 1234 02e6 21E0      		ldi r18,lo8(1)
 1235 02e8 30E0      		ldi r19,hi8(1)
 1236               	.L55:
 1237 02ea 220F      		lsl r18
 1238 02ec 331F      		rol r19
 1239 02ee 8B2D      		mov r24,r11
 1240 02f0 822B      		or r24,r18
 287:onewire/onewire.c **** 
 288:onewire/onewire.c ****             if (bits == 3) {
 1242               	.LM109:
 1243 02f2 8330      		cpi r24,lo8(3)
 1244 02f4 29F4      		brne .L56
 289:onewire/onewire.c **** 
 290:onewire/onewire.c ****                 /* no devices, just return */
 291:onewire/onewire.c ****                 return rom_index;
 1246               	.LM110:
 1247 02f6 8A2D      		mov r24,r10
 1248 02f8 9927      		clr r25
 1249 02fa 87FD      		sbrc r24,7
 1250 02fc 9095      		com r25
 1251 02fe 60C0      		rjmp .L58
 1252               	.L56:
 292:onewire/onewire.c **** 
 293:onewire/onewire.c ****             } else if (bits == 0) {
 1254               	.LM111:
 1255 0300 8823      		tst r24
 1256 0302 69F5      		brne .L59
 294:onewire/onewire.c **** 
 295:onewire/onewire.c ****                 if (i == last_discrepancy) {
 1258               	.LM112:
 1259 0304 862D      		mov r24,r6
 1260 0306 9927      		clr r25
 1261 0308 87FD      		sbrc r24,7
 1262 030a 9095      		com r25
 1263 030c 0817      		cp r16,r24
 1264 030e 1907      		cpc r17,r25
 1265 0310 31F4      		brne .L61
 296:onewire/onewire.c **** 
 297:onewire/onewire.c ****                     /* set one */
 298:onewire/onewire.c ****                     ow_set_address_bit(&roms[rom_index], i, 1);
 1267               	.LM113:
 1268 0312 41E0      		ldi r20,lo8(1)
 1269 0314 602F      		mov r22,r16
 1270 0316 C701      		movw r24,r14
 1271 0318 0E94 0000 		call ow_set_address_bit
 1272 031c 4FC0      		rjmp .L63
 1273               	.L61:
 299:onewire/onewire.c **** 
 300:onewire/onewire.c ****                     /* transmit one next time */
 301:onewire/onewire.c ****                     bit1 = 1;
 302:onewire/onewire.c **** 
 303:onewire/onewire.c ****                 } else if (i > last_discrepancy) {
 1275               	.LM114:
 1276 031e 8017      		cp r24,r16
 1277 0320 9107      		cpc r25,r17
 1278 0322 3CF4      		brge .L64
 304:onewire/onewire.c **** 
 305:onewire/onewire.c ****                     /* set zero */
 306:onewire/onewire.c ****                     ow_set_address_bit(&roms[rom_index], i, 0);
 1280               	.LM115:
 1281 0324 40E0      		ldi r20,lo8(0)
 1282 0326 602F      		mov r22,r16
 1283 0328 C701      		movw r24,r14
 1284 032a 0E94 0000 		call ow_set_address_bit
 1285 032e 702E      		mov r7,r16
 1286 0330 1AC0      		rjmp .L66
 1287               	.L64:
 1288               	.LBB186:
 307:onewire/onewire.c ****                     discrepancy = i;
 308:onewire/onewire.c **** 
 309:onewire/onewire.c ****                 } else {
 310:onewire/onewire.c **** 
 311:onewire/onewire.c ****                     uint8_t rom_bit = roms[rom_index].bytewise[i / 8] & _BV(i % 8);
 312:onewire/onewire.c **** 
 313:onewire/onewire.c ****                     if (rom_bit == 0)
 1290               	.LM116:
 1291 0332 6695      		lsr r22
 1292 0334 6695      		lsr r22
 1293 0336 6695      		lsr r22
 1294 0338 F701      		movw r30,r14
 1295 033a E60F      		add r30,r22
 1296 033c F11D      		adc r31,__zero_reg__
 1297 033e 9801      		movw r18,r16
 1298 0340 2770      		andi r18,lo8(7)
 1299 0342 3070      		andi r19,hi8(7)
 1300 0344 81E0      		ldi r24,lo8(1)
 1301 0346 90E0      		ldi r25,hi8(1)
 1302 0348 02C0      		rjmp 2f
 1303 034a 880F      	1:	lsl r24
 1304 034c 991F      		rol r25
 1305 034e 2A95      	2:	dec r18
 1306 0350 E2F7      		brpl 1b
 1307 0352 2081      		ld r18,Z
 1308 0354 2823      		and r18,r24
 1309 0356 91F5      		brne .L63
 1310 0358 702E      		mov r7,r16
 1311               	.LBE186:
 314:onewire/onewire.c ****                         discrepancy = i;
 315:onewire/onewire.c **** 
 316:onewire/onewire.c ****                     /* transmit last bit next time */
 317:onewire/onewire.c ****                     bit1 = rom_bit;
 318:onewire/onewire.c **** 
 319:onewire/onewire.c ****                 }
 320:onewire/onewire.c **** 
 321:onewire/onewire.c ****             } else {
 322:onewire/onewire.c **** 
 323:onewire/onewire.c ****                 /* normal case, no discrepancy */
 324:onewire/onewire.c ****                 ow_set_address_bit(&roms[rom_index], i, bit1);
 325:onewire/onewire.c **** 
 326:onewire/onewire.c ****             }
 327:onewire/onewire.c **** 
 328:onewire/onewire.c ****             OW_CONFIG_OUTPUT();
 1313               	.LM117:
 1314 035a 569A      		sbi 42-0x20,6
 1315 035c 12C0      		rjmp .L68
 1316               	.L59:
 1318               	.LM118:
 1319 035e 602F      		mov r22,r16
 1320 0360 C701      		movw r24,r14
 1321 0362 0E94 0000 		call ow_set_address_bit
 1322               	.L66:
 1324               	.LM119:
 1325 0366 569A      		sbi 42-0x20,6
 1326               	.LBB187:
 1327               	.LBB188:
 1329               	.LM120:
 1330 0368 BB20      		tst r11
 1331 036a 59F0      		breq .L68
 1332               	.L69:
 1333               	.LBB189:
 1334               	.LBB190:
 1336               	.LM121:
 1337 036c 5E98      		cbi 43-0x20,6
 1338               	.LBB191:
 1339               	.LBB192:
 1341               	.Ltext55:
 1343               	.LM122:
 1344 036e 84E1      		ldi r24,lo8(20)
 1345 0370 90E0      		ldi r25,hi8(20)
 1346               	/* #APP */
 1347 0372 0197      		1: sbiw r24,1
 1348 0374 F1F7      		brne 1b
 1349               	/* #NOAPP */
 1350               	.LBE192:
 1351               	.LBE191:
 1353               	.Ltext56:
 1355               	.LM123:
 1356 0376 5E9A      		sbi 43-0x20,6
 1357               	.LBB193:
 1358               	.LBB194:
 1360               	.Ltext57:
 1362               	.LM124:
 1363 0378 80E9      		ldi r24,lo8(400)
 1364 037a 91E0      		ldi r25,hi8(400)
 1365               	/* #APP */
 1366 037c 0197      		1: sbiw r24,1
 1367 037e F1F7      		brne 1b
 1368               	/* #NOAPP */
 1369 0380 06C0      		rjmp .L70
 1370               	.L68:
 1371               	.LBE194:
 1372               	.LBE193:
 1373               	.LBE190:
 1374               	.LBE189:
 1375               	.LBB195:
 1376               	.LBB196:
 1378               	.Ltext58:
 1380               	.LM125:
 1381 0382 5E98      		cbi 43-0x20,6
 1382               	.LBB197:
 1383               	.LBB198:
 1385               	.Ltext59:
 1387               	.LM126:
 1388 0384 84EA      		ldi r24,lo8(420)
 1389 0386 91E0      		ldi r25,hi8(420)
 1390               	/* #APP */
 1391 0388 0197      		1: sbiw r24,1
 1392 038a F1F7      		brne 1b
 1393               	/* #NOAPP */
 1394               	.LBE198:
 1395               	.LBE197:
 1397               	.Ltext60:
 1399               	.LM127:
 1400 038c 5E9A      		sbi 43-0x20,6
 1401               	.L70:
 1402 038e 0F5F      		subi r16,lo8(-(1))
 1403 0390 1F4F      		sbci r17,hi8(-(1))
 1404               	.LBE196:
 1405               	.LBE195:
 1406               	.LBE188:
 1407               	.LBE187:
 1408               	.LBE169:
 1410               	.LM128:
 1411 0392 0034      		cpi r16,64
 1412 0394 1105      		cpc r17,__zero_reg__
 1413 0396 09F0      		breq .+2
 1414 0398 78CF      		rjmp .L53
 1415 039a 8A2D      		mov r24,r10
 1416 039c 8F5F      		subi r24,lo8(-(1))
 1417               	.LBE168:
 329:onewire/onewire.c **** 
 330:onewire/onewire.c ****             /* select next bit */
 331:onewire/onewire.c ****             ow_write(bit1);
 332:onewire/onewire.c **** 
 333:onewire/onewire.c ****         }
 334:onewire/onewire.c **** 
 335:onewire/onewire.c ****         last_discrepancy = discrepancy;
 336:onewire/onewire.c ****         rom_index++;
 337:onewire/onewire.c **** 
 338:onewire/onewire.c ****     } while(rom_index < max && last_discrepancy >= 0);
 1419               	.LM129:
 1420 039e 8515      		cp r24,r5
 1421 03a0 30F4      		brsh .L72
 1422 03a2 0894      		sec
 1423 03a4 811C      		adc r8,__zero_reg__
 1424 03a6 911C      		adc r9,__zero_reg__
 1425 03a8 672C      		mov r6,r7
 1426 03aa 77FE      		sbrs r7,7
 1427 03ac F9CE      		rjmp .L39
 1428               	.L72:
 339:onewire/onewire.c **** 
 340:onewire/onewire.c ****     return rom_index;
 1430               	.LM130:
 1431 03ae 9927      		clr r25
 1432 03b0 87FD      		sbrc r24,7
 1433 03b2 9095      		com r25
 1434 03b4 05C0      		rjmp .L58
 1435               	.L45:
 1436 03b6 8FEF      		ldi r24,lo8(-1)
 1437 03b8 9FEF      		ldi r25,hi8(-1)
 1438 03ba 02C0      		rjmp .L58
 1439               	.L63:
 1440               	.LBB199:
 1441               	.LBB200:
 1443               	.LM131:
 1444 03bc 569A      		sbi 42-0x20,6
 1445 03be D6CF      		rjmp .L69
 1446               	.L58:
 1447               	.LBE200:
 1448               	.LBE199:
 1449               	/* epilogue: frame size=0 */
 1450 03c0 DF91      		pop r29
 1451 03c2 CF91      		pop r28
 1452 03c4 1F91      		pop r17
 1453 03c6 0F91      		pop r16
 1454 03c8 FF90      		pop r15
 1455 03ca EF90      		pop r14
 1456 03cc DF90      		pop r13
 1457 03ce CF90      		pop r12
 1458 03d0 BF90      		pop r11
 1459 03d2 AF90      		pop r10
 1460 03d4 9F90      		pop r9
 1461 03d6 8F90      		pop r8
 1462 03d8 7F90      		pop r7
 1463 03da 6F90      		pop r6
 1464 03dc 5F90      		pop r5
 1465 03de 0895      		ret
 1466               	/* epilogue end (size=16) */
 1467               	/* function ow_search_rom size 348 (317) */
 1513               	.Lscope8:
 1515               		.stabd	78,0,0
 1518               	.global	ow_match_rom
 1520               	ow_match_rom:
 1521               		.stabd	46,0,0
 1523               	.LM132:
 1524               	/* prologue: frame size=0 */
 1525 03e0 CF93      		push r28
 1526 03e2 DF93      		push r29
 1527               	/* prologue end (size=2) */
 1528 03e4 BC01      		movw r22,r24
 1529               	.LBB238:
 1530               	.LBB239:
 1532               	.LM133:
 1533 03e6 569A      		sbi 42-0x20,6
 1535               	.LM134:
 1536 03e8 5E98      		cbi 43-0x20,6
 1537               	.LBB240:
 1538               	.LBB241:
 1540               	.Ltext61:
 1542               	.LM135:
 1543 03ea 80E6      		ldi r24,lo8(2400)
 1544 03ec 99E0      		ldi r25,hi8(2400)
 1545               	/* #APP */
 1546 03ee 0197      		1: sbiw r24,1
 1547 03f0 F1F7      		brne 1b
 1548               	/* #NOAPP */
 1549               	.LBE241:
 1550               	.LBE240:
 1552               	.Ltext62:
 1554               	.LM136:
 1555 03f2 5E9A      		sbi 43-0x20,6
 1557               	.LM137:
 1558 03f4 5E9A      		sbi 43-0x20,6
 1559 03f6 5698      		cbi 42-0x20,6
 1560               	.LBB242:
 1561               	.LBB243:
 1563               	.Ltext63:
 1565               	.LM138:
 1566 03f8 82EC      		ldi r24,lo8(450)
 1567 03fa 91E0      		ldi r25,hi8(450)
 1568               	/* #APP */
 1569 03fc 0197      		1: sbiw r24,1
 1570 03fe F1F7      		brne 1b
 1571               	/* #NOAPP */
 1572               	.LBE243:
 1573               	.LBE242:
 1575               	.Ltext64:
 1577               	.LM139:
 1578 0400 29B1      		in r18,41-0x20
 1579               	.LBB244:
 1580               	.LBB245:
 1582               	.Ltext65:
 1584               	.LM140:
 1585 0402 8EE9      		ldi r24,lo8(1950)
 1586 0404 97E0      		ldi r25,hi8(1950)
 1587               	/* #APP */
 1588 0406 0197      		1: sbiw r24,1
 1589 0408 F1F7      		brne 1b
 1590               	/* #NOAPP */
 1591               	.LBE245:
 1592               	.LBE244:
 1594               	.Ltext66:
 1596               	.LM141:
 1597 040a 89B1      		in r24,41-0x20
 1599               	.LM142:
 1600 040c 26FD      		sbrc r18,6
 1601 040e 52C0      		rjmp .L86
 1603               	.LM143:
 1604 0410 86FF      		sbrs r24,6
 1605 0412 50C0      		rjmp .L86
 1606               	.LBE239:
 1607               	.LBE238:
 1608               	.LBB246:
 1609               	.LBB247:
 1611               	.LM144:
 1612 0414 569A      		sbi 42-0x20,6
 1613 0416 20E0      		ldi r18,lo8(0)
 1614 0418 30E0      		ldi r19,hi8(0)
 1615 041a 41E0      		ldi r20,lo8(1)
 1616 041c 50E0      		ldi r21,hi8(1)
 1617 041e C4E1      		ldi r28,lo8(20)
 1618 0420 D0E0      		ldi r29,hi8(20)
 1619 0422 A0E9      		ldi r26,lo8(400)
 1620 0424 B1E0      		ldi r27,hi8(400)
 1621 0426 E4EA      		ldi r30,lo8(420)
 1622 0428 F1E0      		ldi r31,hi8(420)
 1623               	.L89:
 1624               	.LBB248:
 1625               	.LBB249:
 1626               	.LBB250:
 1628               	.LM145:
 1629 042a CA01      		movw r24,r20
 1630 042c 022E      		mov r0,r18
 1631 042e 02C0      		rjmp 2f
 1632 0430 880F      	1:	lsl r24
 1633 0432 991F      		rol r25
 1634 0434 0A94      	2:	dec r0
 1635 0436 E2F7      		brpl 1b
 1636 0438 8575      		andi r24,lo8(85)
 1637 043a 49F0      		breq .L90
 1638               	.LBB251:
 1639               	.LBB252:
 1641               	.LM146:
 1642 043c 5E98      		cbi 43-0x20,6
 1643               	.LBB253:
 1644               	.LBB254:
 1646               	.Ltext67:
 1648               	.LM147:
 1649 043e CE01      		movw r24,r28
 1650               	/* #APP */
 1651 0440 0197      		1: sbiw r24,1
 1652 0442 F1F7      		brne 1b
 1653               	/* #NOAPP */
 1654               	.LBE254:
 1655               	.LBE253:
 1657               	.Ltext68:
 1659               	.LM148:
 1660 0444 5E9A      		sbi 43-0x20,6
 1661               	.LBB255:
 1662               	.LBB256:
 1664               	.Ltext69:
 1666               	.LM149:
 1667 0446 CD01      		movw r24,r26
 1668               	/* #APP */
 1669 0448 0197      		1: sbiw r24,1
 1670 044a F1F7      		brne 1b
 1671               	/* #NOAPP */
 1672 044c 05C0      		rjmp .L92
 1673               	.L90:
 1674               	.LBE256:
 1675               	.LBE255:
 1676               	.LBE252:
 1677               	.LBE251:
 1678               	.LBB257:
 1679               	.LBB258:
 1681               	.Ltext70:
 1683               	.LM150:
 1684 044e 5E98      		cbi 43-0x20,6
 1685               	.LBB259:
 1686               	.LBB260:
 1688               	.Ltext71:
 1690               	.LM151:
 1691 0450 CF01      		movw r24,r30
 1692               	/* #APP */
 1693 0452 0197      		1: sbiw r24,1
 1694 0454 F1F7      		brne 1b
 1695               	/* #NOAPP */
 1696               	.LBE260:
 1697               	.LBE259:
 1699               	.Ltext72:
 1701               	.LM152:
 1702 0456 5E9A      		sbi 43-0x20,6
 1703               	.L92:
 1704 0458 2F5F      		subi r18,lo8(-(1))
 1705 045a 3F4F      		sbci r19,hi8(-(1))
 1706               	.LBE258:
 1707               	.LBE257:
 1708               	.LBE250:
 1709               	.LBE249:
 1711               	.LM153:
 1712 045c 2830      		cpi r18,8
 1713 045e 3105      		cpc r19,__zero_reg__
 1714 0460 61F1      		breq .L106
 1715 0462 E3CF      		rjmp .L89
 1716               	.L94:
 1717               	.LBE248:
 1718               	.LBE247:
 1719               	.LBE246:
 1720               	.LBB261:
 1721               	.LBB262:
 1722               	.LBB263:
 1723               	.LBB264:
 1725               	.LM154:
 1726 0464 81E0      		ldi r24,lo8(1)
 1727 0466 90E0      		ldi r25,hi8(1)
 1728 0468 022E      		mov r0,r18
 1729 046a 02C0      		rjmp 2f
 1730 046c 880F      	1:	lsl r24
 1731 046e 991F      		rol r25
 1732 0470 0A94      	2:	dec r0
 1733 0472 E2F7      		brpl 1b
 1734 0474 8E23      		and r24,r30
 1735 0476 59F0      		breq .L95
 1736               	.LBB265:
 1737               	.LBB266:
 1739               	.LM155:
 1740 0478 5E98      		cbi 43-0x20,6
 1741               	.LBB267:
 1742               	.LBB268:
 1744               	.Ltext73:
 1746               	.LM156:
 1747 047a 84E1      		ldi r24,lo8(20)
 1748 047c 90E0      		ldi r25,hi8(20)
 1749               	/* #APP */
 1750 047e 0197      		1: sbiw r24,1
 1751 0480 F1F7      		brne 1b
 1752               	/* #NOAPP */
 1753               	.LBE268:
 1754               	.LBE267:
 1756               	.Ltext74:
 1758               	.LM157:
 1759 0482 5E9A      		sbi 43-0x20,6
 1760               	.LBB269:
 1761               	.LBB270:
 1763               	.Ltext75:
 1765               	.LM158:
 1766 0484 80E9      		ldi r24,lo8(400)
 1767 0486 91E0      		ldi r25,hi8(400)
 1768               	/* #APP */
 1769 0488 0197      		1: sbiw r24,1
 1770 048a F1F7      		brne 1b
 1771               	/* #NOAPP */
 1772 048c 06C0      		rjmp .L97
 1773               	.L95:
 1774               	.LBE270:
 1775               	.LBE269:
 1776               	.LBE266:
 1777               	.LBE265:
 1778               	.LBB271:
 1779               	.LBB272:
 1781               	.Ltext76:
 1783               	.LM159:
 1784 048e 5E98      		cbi 43-0x20,6
 1785               	.LBB273:
 1786               	.LBB274:
 1788               	.Ltext77:
 1790               	.LM160:
 1791 0490 84EA      		ldi r24,lo8(420)
 1792 0492 91E0      		ldi r25,hi8(420)
 1793               	/* #APP */
 1794 0494 0197      		1: sbiw r24,1
 1795 0496 F1F7      		brne 1b
 1796               	/* #NOAPP */
 1797               	.LBE274:
 1798               	.LBE273:
 1800               	.Ltext78:
 1802               	.LM161:
 1803 0498 5E9A      		sbi 43-0x20,6
 1804               	.L97:
 1805 049a 2F5F      		subi r18,lo8(-(1))
 1806 049c 3F4F      		sbci r19,hi8(-(1))
 1807               	.LBE272:
 1808               	.LBE271:
 1809               	.LBE264:
 1810               	.LBE263:
 1812               	.LM162:
 1813 049e 2830      		cpi r18,8
 1814 04a0 3105      		cpc r19,__zero_reg__
 1815 04a2 01F7      		brne .L94
 1816 04a4 4F5F      		subi r20,lo8(-(1))
 1817 04a6 5F4F      		sbci r21,hi8(-(1))
 1818               	.LBE262:
 1820               	.LM163:
 1821 04a8 4830      		cpi r20,8
 1822 04aa 5105      		cpc r21,__zero_reg__
 1823 04ac 41F4      		brne .L99
 1824 04ae 81E0      		ldi r24,lo8(1)
 1825 04b0 90E0      		ldi r25,hi8(1)
 1826 04b2 0CC0      		rjmp .L101
 1827               	.L86:
 1828 04b4 8FEF      		ldi r24,lo8(-1)
 1829 04b6 9FEF      		ldi r25,hi8(-1)
 1830 04b8 09C0      		rjmp .L101
 1831               	.L106:
 1832 04ba 40E0      		ldi r20,lo8(0)
 1833 04bc 50E0      		ldi r21,hi8(0)
 1834               	.L99:
 1835               	.LBB275:
 1837               	.LM164:
 1838 04be FB01      		movw r30,r22
 1839 04c0 E40F      		add r30,r20
 1840 04c2 F51F      		adc r31,r21
 1841 04c4 E081      		ld r30,Z
 1842 04c6 20E0      		ldi r18,lo8(0)
 1843 04c8 30E0      		ldi r19,hi8(0)
 1844 04ca CCCF      		rjmp .L94
 1845               	.L101:
 1846               	.LBE275:
 1847               	.LBE261:
 1848               	/* epilogue: frame size=0 */
 1849 04cc DF91      		pop r29
 1850 04ce CF91      		pop r28
 1851 04d0 0895      		ret
 1852               	/* epilogue end (size=3) */
 1853               	/* function ow_match_rom size 141 (136) */
 1864               	.Lscope9:
 1866               		.stabd	78,0,0
 1868               	.global	ow_skip_rom
 1870               	ow_skip_rom:
 1871               		.stabd	46,0,0
 1873               	.LM165:
 1874               	/* prologue: frame size=0 */
 1875 04d2 CF93      		push r28
 1876 04d4 DF93      		push r29
 1877               	/* prologue end (size=2) */
 1878               	.LBB299:
 1879               	.LBB300:
 1881               	.LM166:
 1882 04d6 569A      		sbi 42-0x20,6
 1884               	.LM167:
 1885 04d8 5E98      		cbi 43-0x20,6
 1886               	.LBB301:
 1887               	.LBB302:
 1889               	.Ltext79:
 1891               	.LM168:
 1892 04da 80E6      		ldi r24,lo8(2400)
 1893 04dc 99E0      		ldi r25,hi8(2400)
 1894               	/* #APP */
 1895 04de 0197      		1: sbiw r24,1
 1896 04e0 F1F7      		brne 1b
 1897               	/* #NOAPP */
 1898               	.LBE302:
 1899               	.LBE301:
 1901               	.Ltext80:
 1903               	.LM169:
 1904 04e2 5E9A      		sbi 43-0x20,6
 1906               	.LM170:
 1907 04e4 5E9A      		sbi 43-0x20,6
 1908 04e6 5698      		cbi 42-0x20,6
 1909               	.LBB303:
 1910               	.LBB304:
 1912               	.Ltext81:
 1914               	.LM171:
 1915 04e8 82EC      		ldi r24,lo8(450)
 1916 04ea 91E0      		ldi r25,hi8(450)
 1917               	/* #APP */
 1918 04ec 0197      		1: sbiw r24,1
 1919 04ee F1F7      		brne 1b
 1920               	/* #NOAPP */
 1921               	.LBE304:
 1922               	.LBE303:
 1924               	.Ltext82:
 1926               	.LM172:
 1927 04f0 29B1      		in r18,41-0x20
 1928               	.LBB305:
 1929               	.LBB306:
 1931               	.Ltext83:
 1933               	.LM173:
 1934 04f2 8EE9      		ldi r24,lo8(1950)
 1935 04f4 97E0      		ldi r25,hi8(1950)
 1936               	/* #APP */
 1937 04f6 0197      		1: sbiw r24,1
 1938 04f8 F1F7      		brne 1b
 1939               	/* #NOAPP */
 1940               	.LBE306:
 1941               	.LBE305:
 1943               	.Ltext84:
 1945               	.LM174:
 1946 04fa 89B1      		in r24,41-0x20
 1948               	.LM175:
 1949 04fc 26FD      		sbrc r18,6
 1950 04fe 2CC0      		rjmp .L110
 1952               	.LM176:
 1953 0500 86FF      		sbrs r24,6
 1954 0502 2AC0      		rjmp .L110
 1955               	.LBE300:
 1956               	.LBE299:
 1957               	.LBB307:
 1958               	.LBB308:
 1960               	.LM177:
 1961 0504 569A      		sbi 42-0x20,6
 1962 0506 20E0      		ldi r18,lo8(0)
 1963 0508 30E0      		ldi r19,hi8(0)
 1964 050a 41E0      		ldi r20,lo8(1)
 1965 050c 50E0      		ldi r21,hi8(1)
 1966 050e C4E1      		ldi r28,lo8(20)
 1967 0510 D0E0      		ldi r29,hi8(20)
 1968 0512 A0E9      		ldi r26,lo8(400)
 1969 0514 B1E0      		ldi r27,hi8(400)
 1970 0516 E4EA      		ldi r30,lo8(420)
 1971 0518 F1E0      		ldi r31,hi8(420)
 1972               	.L113:
 1973               	.LBB309:
 1974               	.LBB310:
 1975               	.LBB311:
 1977               	.LM178:
 1978 051a CA01      		movw r24,r20
 1979 051c 022E      		mov r0,r18
 1980 051e 02C0      		rjmp 2f
 1981 0520 880F      	1:	lsl r24
 1982 0522 991F      		rol r25
 1983 0524 0A94      	2:	dec r0
 1984 0526 E2F7      		brpl 1b
 1985 0528 8C7C      		andi r24,lo8(-52)
 1986 052a 49F0      		breq .L114
 1987               	.LBB312:
 1988               	.LBB313:
 1990               	.LM179:
 1991 052c 5E98      		cbi 43-0x20,6
 1992               	.LBB314:
 1993               	.LBB315:
 1995               	.Ltext85:
 1997               	.LM180:
 1998 052e CE01      		movw r24,r28
 1999               	/* #APP */
 2000 0530 0197      		1: sbiw r24,1
 2001 0532 F1F7      		brne 1b
 2002               	/* #NOAPP */
 2003               	.LBE315:
 2004               	.LBE314:
 2006               	.Ltext86:
 2008               	.LM181:
 2009 0534 5E9A      		sbi 43-0x20,6
 2010               	.LBB316:
 2011               	.LBB317:
 2013               	.Ltext87:
 2015               	.LM182:
 2016 0536 CD01      		movw r24,r26
 2017               	/* #APP */
 2018 0538 0197      		1: sbiw r24,1
 2019 053a F1F7      		brne 1b
 2020               	/* #NOAPP */
 2021 053c 05C0      		rjmp .L116
 2022               	.L114:
 2023               	.LBE317:
 2024               	.LBE316:
 2025               	.LBE313:
 2026               	.LBE312:
 2027               	.LBB318:
 2028               	.LBB319:
 2030               	.Ltext88:
 2032               	.LM183:
 2033 053e 5E98      		cbi 43-0x20,6
 2034               	.LBB320:
 2035               	.LBB321:
 2037               	.Ltext89:
 2039               	.LM184:
 2040 0540 CF01      		movw r24,r30
 2041               	/* #APP */
 2042 0542 0197      		1: sbiw r24,1
 2043 0544 F1F7      		brne 1b
 2044               	/* #NOAPP */
 2045               	.LBE321:
 2046               	.LBE320:
 2048               	.Ltext90:
 2050               	.LM185:
 2051 0546 5E9A      		sbi 43-0x20,6
 2052               	.L116:
 2053 0548 2F5F      		subi r18,lo8(-(1))
 2054 054a 3F4F      		sbci r19,hi8(-(1))
 2055               	.LBE319:
 2056               	.LBE318:
 2057               	.LBE311:
 2058               	.LBE310:
 2060               	.LM186:
 2061 054c 2830      		cpi r18,8
 2062 054e 3105      		cpc r19,__zero_reg__
 2063 0550 21F7      		brne .L113
 2064 0552 81E0      		ldi r24,lo8(1)
 2065 0554 90E0      		ldi r25,hi8(1)
 2066 0556 02C0      		rjmp .L118
 2067               	.L110:
 2068 0558 8FEF      		ldi r24,lo8(-1)
 2069 055a 9FEF      		ldi r25,hi8(-1)
 2070               	.L118:
 2071               	.LBE309:
 2072               	.LBE308:
 2073               	.LBE307:
 2074               	/* epilogue: frame size=0 */
 2075 055c DF91      		pop r29
 2076 055e CF91      		pop r28
 2077 0560 0895      		ret
 2078               	/* epilogue end (size=3) */
 2079               	/* function ow_skip_rom size 85 (80) */
 2090               	.Lscope10:
 2092               		.stabd	78,0,0
 2095               	.global	ow_read_rom
 2097               	ow_read_rom:
 2098               		.stabd	46,0,0
 2100               	.LM187:
 2101               	/* prologue: frame size=0 */
 2102 0562 CF92      		push r12
 2103 0564 DF92      		push r13
 2104 0566 EF92      		push r14
 2105 0568 FF92      		push r15
 2106 056a 0F93      		push r16
 2107 056c 1F93      		push r17
 2108 056e CF93      		push r28
 2109 0570 DF93      		push r29
 2110               	/* prologue end (size=8) */
 2111 0572 EC01      		movw r28,r24
 2112               	.LBB355:
 2113               	.LBB356:
 2115               	.LM188:
 2116 0574 569A      		sbi 42-0x20,6
 2118               	.LM189:
 2119 0576 5E98      		cbi 43-0x20,6
 2120               	.LBB357:
 2121               	.LBB358:
 2123               	.Ltext91:
 2125               	.LM190:
 2126 0578 80E6      		ldi r24,lo8(2400)
 2127 057a 99E0      		ldi r25,hi8(2400)
 2128               	/* #APP */
 2129 057c 0197      		1: sbiw r24,1
 2130 057e F1F7      		brne 1b
 2131               	/* #NOAPP */
 2132               	.LBE358:
 2133               	.LBE357:
 2135               	.Ltext92:
 2137               	.LM191:
 2138 0580 5E9A      		sbi 43-0x20,6
 2140               	.LM192:
 2141 0582 5E9A      		sbi 43-0x20,6
 2142 0584 5698      		cbi 42-0x20,6
 2143               	.LBB359:
 2144               	.LBB360:
 2146               	.Ltext93:
 2148               	.LM193:
 2149 0586 82EC      		ldi r24,lo8(450)
 2150 0588 91E0      		ldi r25,hi8(450)
 2151               	/* #APP */
 2152 058a 0197      		1: sbiw r24,1
 2153 058c F1F7      		brne 1b
 2154               	/* #NOAPP */
 2155               	.LBE360:
 2156               	.LBE359:
 2158               	.Ltext94:
 2160               	.LM194:
 2161 058e 29B1      		in r18,41-0x20
 2162               	.LBB361:
 2163               	.LBB362:
 2165               	.Ltext95:
 2167               	.LM195:
 2168 0590 8EE9      		ldi r24,lo8(1950)
 2169 0592 97E0      		ldi r25,hi8(1950)
 2170               	/* #APP */
 2171 0594 0197      		1: sbiw r24,1
 2172 0596 F1F7      		brne 1b
 2173               	/* #NOAPP */
 2174               	.LBE362:
 2175               	.LBE361:
 2177               	.Ltext96:
 2179               	.LM196:
 2180 0598 89B1      		in r24,41-0x20
 2182               	.LM197:
 2183 059a 26FD      		sbrc r18,6
 2184 059c 69C0      		rjmp .L123
 2186               	.LM198:
 2187 059e 86FF      		sbrs r24,6
 2188 05a0 67C0      		rjmp .L123
 2189               	.LBE356:
 2190               	.LBE355:
 2191               	.LBB363:
 2192               	.LBB364:
 2194               	.LM199:
 2195 05a2 569A      		sbi 42-0x20,6
 2196 05a4 20E0      		ldi r18,lo8(0)
 2197 05a6 30E0      		ldi r19,hi8(0)
 2198 05a8 61E0      		ldi r22,lo8(1)
 2199 05aa 70E0      		ldi r23,hi8(1)
 2200 05ac 44E1      		ldi r20,lo8(20)
 2201 05ae 50E0      		ldi r21,hi8(20)
 2202 05b0 A0E9      		ldi r26,lo8(400)
 2203 05b2 B1E0      		ldi r27,hi8(400)
 2204 05b4 E4EA      		ldi r30,lo8(420)
 2205 05b6 F1E0      		ldi r31,hi8(420)
 2206               	.L126:
 2207               	.LBB365:
 2208               	.LBB366:
 2209               	.LBB367:
 2211               	.LM200:
 2212 05b8 CB01      		movw r24,r22
 2213 05ba 022E      		mov r0,r18
 2214 05bc 02C0      		rjmp 2f
 2215 05be 880F      	1:	lsl r24
 2216 05c0 991F      		rol r25
 2217 05c2 0A94      	2:	dec r0
 2218 05c4 E2F7      		brpl 1b
 2219 05c6 8373      		andi r24,lo8(51)
 2220 05c8 49F0      		breq .L127
 2221               	.LBB368:
 2222               	.LBB369:
 2224               	.LM201:
 2225 05ca 5E98      		cbi 43-0x20,6
 2226               	.LBB370:
 2227               	.LBB371:
 2229               	.Ltext97:
 2231               	.LM202:
 2232 05cc CA01      		movw r24,r20
 2233               	/* #APP */
 2234 05ce 0197      		1: sbiw r24,1
 2235 05d0 F1F7      		brne 1b
 2236               	/* #NOAPP */
 2237               	.LBE371:
 2238               	.LBE370:
 2240               	.Ltext98:
 2242               	.LM203:
 2243 05d2 5E9A      		sbi 43-0x20,6
 2244               	.LBB372:
 2245               	.LBB373:
 2247               	.Ltext99:
 2249               	.LM204:
 2250 05d4 CD01      		movw r24,r26
 2251               	/* #APP */
 2252 05d6 0197      		1: sbiw r24,1
 2253 05d8 F1F7      		brne 1b
 2254               	/* #NOAPP */
 2255 05da 05C0      		rjmp .L129
 2256               	.L127:
 2257               	.LBE373:
 2258               	.LBE372:
 2259               	.LBE369:
 2260               	.LBE368:
 2261               	.LBB374:
 2262               	.LBB375:
 2264               	.Ltext100:
 2266               	.LM205:
 2267 05dc 5E98      		cbi 43-0x20,6
 2268               	.LBB376:
 2269               	.LBB377:
 2271               	.Ltext101:
 2273               	.LM206:
 2274 05de CF01      		movw r24,r30
 2275               	/* #APP */
 2276 05e0 0197      		1: sbiw r24,1
 2277 05e2 F1F7      		brne 1b
 2278               	/* #NOAPP */
 2279               	.LBE377:
 2280               	.LBE376:
 2282               	.Ltext102:
 2284               	.LM207:
 2285 05e4 5E9A      		sbi 43-0x20,6
 2286               	.L129:
 2287 05e6 2F5F      		subi r18,lo8(-(1))
 2288 05e8 3F4F      		sbci r19,hi8(-(1))
 2289               	.LBE375:
 2290               	.LBE374:
 2291               	.LBE367:
 2292               	.LBE366:
 2294               	.LM208:
 2295 05ea 2830      		cpi r18,8
 2296 05ec 3105      		cpc r19,__zero_reg__
 2297 05ee 21F7      		brne .L126
 2298 05f0 DE01      		movw r26,r28
 2299 05f2 70E0      		ldi r23,lo8(0)
 2300 05f4 65E0      		ldi r22,lo8(5)
 2301 05f6 C62E      		mov r12,r22
 2302 05f8 D12C      		mov r13,__zero_reg__
 2303 05fa 56E4      		ldi r21,lo8(70)
 2304 05fc E52E      		mov r14,r21
 2305 05fe F12C      		mov r15,__zero_reg__
 2306 0600 05E4      		ldi r16,lo8(325)
 2307 0602 11E0      		ldi r17,hi8(325)
 2308               	.L131:
 2309               	.LBE365:
 2310               	.LBE364:
 2311               	.LBE363:
 2312               	.LBB378:
 2314               	.LM209:
 2315 0604 1C92      		st X,__zero_reg__
 2316 0606 60E0      		ldi r22,lo8(0)
 2317 0608 40E0      		ldi r20,lo8(0)
 2318 060a 50E0      		ldi r21,hi8(0)
 2319               	.L132:
 2320               	.LBB379:
 2321               	.LBB380:
 2322               	.LBB381:
 2324               	.LM210:
 2325 060c 569A      		sbi 42-0x20,6
 2327               	.LM211:
 2328 060e 5E98      		cbi 43-0x20,6
 2329               	.LBB382:
 2330               	.LBB383:
 2332               	.Ltext103:
 2334               	.LM212:
 2335 0610 C601      		movw r24,r12
 2336               	/* #APP */
 2337 0612 0197      		1: sbiw r24,1
 2338 0614 F1F7      		brne 1b
 2339               	/* #NOAPP */
 2340               	.LBE383:
 2341               	.LBE382:
 2343               	.Ltext104:
 2345               	.LM213:
 2346 0616 5E9A      		sbi 43-0x20,6
 2348               	.LM214:
 2349 0618 5E9A      		sbi 43-0x20,6
 2350 061a 5698      		cbi 42-0x20,6
 2351               	.LBB384:
 2352               	.LBB385:
 2354               	.Ltext105:
 2356               	.LM215:
 2357 061c C701      		movw r24,r14
 2358               	/* #APP */
 2359 061e 0197      		1: sbiw r24,1
 2360 0620 F1F7      		brne 1b
 2361               	/* #NOAPP */
 2362               	.LBE385:
 2363               	.LBE384:
 2365               	.Ltext106:
 2367               	.LM216:
 2368 0622 89B1      		in r24,41-0x20
 2369               	.LBB386:
 2370               	.LBB387:
 2372               	.Ltext107:
 2374               	.LM217:
 2375 0624 F801      		movw r30,r16
 2376               	/* #APP */
 2377 0626 3197      		1: sbiw r30,1
 2378 0628 F1F7      		brne 1b
 2379               	/* #NOAPP */
 2380               	.LBE387:
 2381               	.LBE386:
 2382               	.LBE381:
 2383               	.LBE380:
 2385               	.Ltext108:
 2387               	.LM218:
 2388 062a 20E0      		ldi r18,lo8(0)
 2389 062c 30E0      		ldi r19,hi8(0)
 2390 062e 86FF      		sbrs r24,6
 2391 0630 02C0      		rjmp .L133
 2392 0632 21E0      		ldi r18,lo8(1)
 2393 0634 30E0      		ldi r19,hi8(1)
 2394               	.L133:
 2395 0636 042E      		mov r0,r20
 2396 0638 02C0      		rjmp 2f
 2397 063a 220F      	1:	lsl r18
 2398 063c 331F      		rol r19
 2399 063e 0A94      	2:	dec r0
 2400 0640 E2F7      		brpl 1b
 2401 0642 622B      		or r22,r18
 2402 0644 4F5F      		subi r20,lo8(-(1))
 2403 0646 5F4F      		sbci r21,hi8(-(1))
 2405               	.LM219:
 2406 0648 4830      		cpi r20,8
 2407 064a 5105      		cpc r21,__zero_reg__
 2408 064c F9F6      		brne .L132
 2409 064e 6D93      		st X+,r22
 2410               	.LBE379:
 2412               	.LM220:
 2413 0650 7F5F      		subi r23,lo8(-(1))
 2414 0652 7830      		cpi r23,lo8(8)
 2415 0654 B9F6      		brne .L131
 2416               	.LBE378:
 2418               	.LM221:
 2419 0656 1F81      		ldd r17,Y+7
 2420 0658 67E0      		ldi r22,lo8(7)
 2421 065a CE01      		movw r24,r28
 2422 065c 0E94 0000 		call crc_checksum
 2423 0660 1817      		cp r17,r24
 2424 0662 19F0      		breq .L136
 2425 0664 8EEF      		ldi r24,lo8(-2)
 2426 0666 9FEF      		ldi r25,hi8(-2)
 2427 0668 05C0      		rjmp .L138
 2428               	.L136:
 2429 066a 81E0      		ldi r24,lo8(1)
 2430 066c 90E0      		ldi r25,hi8(1)
 2431 066e 02C0      		rjmp .L138
 2432               	.L123:
 2433 0670 8FEF      		ldi r24,lo8(-1)
 2434 0672 9FEF      		ldi r25,hi8(-1)
 2435               	.L138:
 2436               	/* epilogue: frame size=0 */
 2437 0674 DF91      		pop r29
 2438 0676 CF91      		pop r28
 2439 0678 1F91      		pop r17
 2440 067a 0F91      		pop r16
 2441 067c FF90      		pop r15
 2442 067e EF90      		pop r14
 2443 0680 DF90      		pop r13
 2444 0682 CF90      		pop r12
 2445 0684 0895      		ret
 2446               	/* epilogue end (size=9) */
 2447               	/* function ow_read_rom size 165 (148) */
 2470               	.Lscope11:
 2472               		.stabd	78,0,0
 2476               	.global	ow_start_convert
 2478               	ow_start_convert:
 2479               		.stabd	46,0,0
 341:onewire/onewire.c **** 
 342:onewire/onewire.c **** #if 0
 343:onewire/onewire.c ****     uint8_t rom_index = 0;
 344:onewire/onewire.c **** 
 345:onewire/onewire.c ****     int8_t last_diff;
 346:onewire/onewire.c ****     int8_t done_diff = 65;
 347:onewire/onewire.c **** 
 348:onewire/onewire.c ****     do {
 349:onewire/onewire.c **** 
 350:onewire/onewire.c ****         /* reset the bus */
 351:onewire/onewire.c ****         if (!reset_onewire())
 352:onewire/onewire.c ****             return -1;
 353:onewire/onewire.c **** 
 354:onewire/onewire.c ****         /* transmit command byte */
 355:onewire/onewire.c ****         ow_write_byte(OW_ROM_SEARCH_ROM);
 356:onewire/onewire.c **** 
 357:onewire/onewire.c ****         last_diff = -1;
 358:onewire/onewire.c **** 
 359:onewire/onewire.c ****         for (uint8_t i = 0; i < 64; i++) {
 360:onewire/onewire.c **** 
 361:onewire/onewire.c ****             uint8_t byte = i / 8;
 362:onewire/onewire.c ****             uint8_t index = i % 8;
 363:onewire/onewire.c **** 
 364:onewire/onewire.c ****             if (index == 0)
 365:onewire/onewire.c ****                 roms[rom_index].bytewise[byte] = 0;
 366:onewire/onewire.c **** 
 367:onewire/onewire.c ****             uint8_t bit1 = ow_read();
 368:onewire/onewire.c ****             uint8_t bits = (ow_read() << 1) | bit1;
 369:onewire/onewire.c **** 
 370:onewire/onewire.c ****             /* if we received two ones, something is wrong (no devices attached?) */
 371:onewire/onewire.c ****             if ( bits == 3 )
 372:onewire/onewire.c ****                 return -2;
 373:onewire/onewire.c **** 
 374:onewire/onewire.c ****             /* if we received two zeroes, we found a difference */
 375:onewire/onewire.c ****             if (bits == 0) {
 376:onewire/onewire.c **** 
 377:onewire/onewire.c ****                 /* if this difference is later than the last difference
 378:onewire/onewire.c ****                  * remembered and before the differences already processed,
 379:onewire/onewire.c ****                  * remember index and choose zero branch */
 380:onewire/onewire.c ****                 if (i > last_diff && i < done_diff)
 381:onewire/onewire.c ****                     last_diff = i;
 382:onewire/onewire.c **** 
 383:onewire/onewire.c ****                 /* if this difference is at index done_diff, choose one branch */
 384:onewire/onewire.c ****                 else if (i == done_diff)
 385:onewire/onewire.c ****                     bit1 = 1;
 386:onewire/onewire.c **** 
 387:onewire/onewire.c ****             }
 388:onewire/onewire.c **** 
 389:onewire/onewire.c ****             /* remember bit1 (there exists at least one device with bit1 in it's id) */
 390:onewire/onewire.c ****             if (bit1)
 391:onewire/onewire.c ****                 roms[rom_index].bytewise[byte] |= _BV(index);
 392:onewire/onewire.c **** 
 393:onewire/onewire.c ****             OW_CONFIG_OUTPUT();
 394:onewire/onewire.c **** 
 395:onewire/onewire.c ****             /* select next bit */
 396:onewire/onewire.c ****             ow_write(bit1);
 397:onewire/onewire.c **** 
 398:onewire/onewire.c ****             /* set done_diff to last difference */
 399:onewire/onewire.c ****             if (last_diff > -1)
 400:onewire/onewire.c ****                 done_diff = last_diff;
 401:onewire/onewire.c **** 
 402:onewire/onewire.c ****         }
 403:onewire/onewire.c **** 
 404:onewire/onewire.c ****         rom_index++;
 405:onewire/onewire.c **** 
 406:onewire/onewire.c ****     } while (rom_index < max && last_diff > -1);
 407:onewire/onewire.c **** 
 408:onewire/onewire.c ****     return rom_index;
 409:onewire/onewire.c **** #endif
 410:onewire/onewire.c **** 
 411:onewire/onewire.c **** } /* }}} */
 412:onewire/onewire.c **** 
 413:onewire/onewire.c **** int8_t ow_start_convert(struct ow_rom_code_t *rom, uint8_t wait)
 414:onewire/onewire.c **** /* {{{ */ {
 2481               	.LM222:
 2482               	/* prologue: frame size=0 */
 2483 0686 0F93      		push r16
 2484 0688 1F93      		push r17
 2485 068a CF93      		push r28
 2486 068c DF93      		push r29
 2487               	/* prologue end (size=4) */
 2488 068e 8C01      		movw r16,r24
 415:onewire/onewire.c **** 
 416:onewire/onewire.c ****     int8_t ret;
 417:onewire/onewire.c **** 
 418:onewire/onewire.c ****     if (rom == NULL)
 2490               	.LM223:
 2491 0690 892B      		or r24,r25
 2492 0692 09F0      		breq .+2
 2493 0694 3FC0      		rjmp .L147
 2494               	.LBB475:
 2495               	.LBB476:
 2496               	.LBB477:
 2497               	.LBB478:
 2499               	.LM224:
 2500 0696 569A      		sbi 42-0x20,6
 2502               	.LM225:
 2503 0698 5E98      		cbi 43-0x20,6
 2504               	.LBB479:
 2505               	.LBB480:
 2507               	.Ltext109:
 2509               	.LM226:
 2510 069a 80E6      		ldi r24,lo8(2400)
 2511 069c 99E0      		ldi r25,hi8(2400)
 2512               	/* #APP */
 2513 069e 0197      		1: sbiw r24,1
 2514 06a0 F1F7      		brne 1b
 2515               	/* #NOAPP */
 2516               	.LBE480:
 2517               	.LBE479:
 2519               	.Ltext110:
 2521               	.LM227:
 2522 06a2 5E9A      		sbi 43-0x20,6
 2524               	.LM228:
 2525 06a4 5E9A      		sbi 43-0x20,6
 2526 06a6 5698      		cbi 42-0x20,6
 2527               	.LBB481:
 2528               	.LBB482:
 2530               	.Ltext111:
 2532               	.LM229:
 2533 06a8 82EC      		ldi r24,lo8(450)
 2534 06aa 91E0      		ldi r25,hi8(450)
 2535               	/* #APP */
 2536 06ac 0197      		1: sbiw r24,1
 2537 06ae F1F7      		brne 1b
 2538               	/* #NOAPP */
 2539               	.LBE482:
 2540               	.LBE481:
 2542               	.Ltext112:
 2544               	.LM230:
 2545 06b0 29B1      		in r18,41-0x20
 2546               	.LBB483:
 2547               	.LBB484:
 2549               	.Ltext113:
 2551               	.LM231:
 2552 06b2 8EE9      		ldi r24,lo8(1950)
 2553 06b4 97E0      		ldi r25,hi8(1950)
 2554               	/* #APP */
 2555 06b6 0197      		1: sbiw r24,1
 2556 06b8 F1F7      		brne 1b
 2557               	/* #NOAPP */
 2558               	.LBE484:
 2559               	.LBE483:
 2561               	.Ltext114:
 2563               	.LM232:
 2564 06ba 89B1      		in r24,41-0x20
 2566               	.LM233:
 2567 06bc 26FD      		sbrc r18,6
 2568 06be 93C0      		rjmp .L159
 2569 06c0 86FF      		sbrs r24,6
 2570 06c2 91C0      		rjmp .L159
 2571               	.LBE478:
 2572               	.LBE477:
 2573               	.LBB485:
 2574               	.LBB486:
 2576               	.LM234:
 2577 06c4 569A      		sbi 42-0x20,6
 2578 06c6 20E0      		ldi r18,lo8(0)
 2579 06c8 30E0      		ldi r19,hi8(0)
 2580 06ca 41E0      		ldi r20,lo8(1)
 2581 06cc 50E0      		ldi r21,hi8(1)
 2582 06ce C4E1      		ldi r28,lo8(20)
 2583 06d0 D0E0      		ldi r29,hi8(20)
 2584 06d2 A0E9      		ldi r26,lo8(400)
 2585 06d4 B1E0      		ldi r27,hi8(400)
 2586 06d6 E4EA      		ldi r30,lo8(420)
 2587 06d8 F1E0      		ldi r31,hi8(420)
 2588               	.L152:
 2589               	.LBB487:
 2590               	.LBB488:
 2591               	.LBB489:
 2593               	.LM235:
 2594 06da CA01      		movw r24,r20
 2595 06dc 022E      		mov r0,r18
 2596 06de 02C0      		rjmp 2f
 2597 06e0 880F      	1:	lsl r24
 2598 06e2 991F      		rol r25
 2599 06e4 0A94      	2:	dec r0
 2600 06e6 E2F7      		brpl 1b
 2601 06e8 8C7C      		andi r24,lo8(-52)
 2602 06ea 49F0      		breq .L153
 2603               	.LBB490:
 2604               	.LBB491:
 2606               	.LM236:
 2607 06ec 5E98      		cbi 43-0x20,6
 2608               	.LBB492:
 2609               	.LBB493:
 2611               	.Ltext115:
 2613               	.LM237:
 2614 06ee CE01      		movw r24,r28
 2615               	/* #APP */
 2616 06f0 0197      		1: sbiw r24,1
 2617 06f2 F1F7      		brne 1b
 2618               	/* #NOAPP */
 2619               	.LBE493:
 2620               	.LBE492:
 2622               	.Ltext116:
 2624               	.LM238:
 2625 06f4 5E9A      		sbi 43-0x20,6
 2626               	.LBB494:
 2627               	.LBB495:
 2629               	.Ltext117:
 2631               	.LM239:
 2632 06f6 CD01      		movw r24,r26
 2633               	/* #APP */
 2634 06f8 0197      		1: sbiw r24,1
 2635 06fa F1F7      		brne 1b
 2636               	/* #NOAPP */
 2637 06fc 05C0      		rjmp .L155
 2638               	.L153:
 2639               	.LBE495:
 2640               	.LBE494:
 2641               	.LBE491:
 2642               	.LBE490:
 2643               	.LBB496:
 2644               	.LBB497:
 2646               	.Ltext118:
 2648               	.LM240:
 2649 06fe 5E98      		cbi 43-0x20,6
 2650               	.LBB498:
 2651               	.LBB499:
 2653               	.Ltext119:
 2655               	.LM241:
 2656 0700 CF01      		movw r24,r30
 2657               	/* #APP */
 2658 0702 0197      		1: sbiw r24,1
 2659 0704 F1F7      		brne 1b
 2660               	/* #NOAPP */
 2661               	.LBE499:
 2662               	.LBE498:
 2664               	.Ltext120:
 2666               	.LM242:
 2667 0706 5E9A      		sbi 43-0x20,6
 2668               	.L155:
 2669 0708 2F5F      		subi r18,lo8(-(1))
 2670 070a 3F4F      		sbci r19,hi8(-(1))
 2671               	.LBE497:
 2672               	.LBE496:
 2673               	.LBE489:
 2674               	.LBE488:
 2676               	.LM243:
 2677 070c 2830      		cpi r18,8
 2678 070e 3105      		cpc r19,__zero_reg__
 2679 0710 21F7      		brne .L152
 2680 0712 66C0      		rjmp .L202
 2681               	.L147:
 2682               	.LBE487:
 2683               	.LBE486:
 2684               	.LBE485:
 2685               	.LBE476:
 2686               	.LBE475:
 2687               	.LBB500:
 2688               	.LBB501:
 2689               	.LBB502:
 2690               	.LBB503:
 2692               	.LM244:
 2693 0714 569A      		sbi 42-0x20,6
 2695               	.LM245:
 2696 0716 5E98      		cbi 43-0x20,6
 2697               	.LBB504:
 2698               	.LBB505:
 2700               	.Ltext121:
 2702               	.LM246:
 2703 0718 80E6      		ldi r24,lo8(2400)
 2704 071a 99E0      		ldi r25,hi8(2400)
 2705               	/* #APP */
 2706 071c 0197      		1: sbiw r24,1
 2707 071e F1F7      		brne 1b
 2708               	/* #NOAPP */
 2709               	.LBE505:
 2710               	.LBE504:
 2712               	.Ltext122:
 2714               	.LM247:
 2715 0720 5E9A      		sbi 43-0x20,6
 2717               	.LM248:
 2718 0722 5E9A      		sbi 43-0x20,6
 2719 0724 5698      		cbi 42-0x20,6
 2720               	.LBB506:
 2721               	.LBB507:
 2723               	.Ltext123:
 2725               	.LM249:
 2726 0726 82EC      		ldi r24,lo8(450)
 2727 0728 91E0      		ldi r25,hi8(450)
 2728               	/* #APP */
 2729 072a 0197      		1: sbiw r24,1
 2730 072c F1F7      		brne 1b
 2731               	/* #NOAPP */
 2732               	.LBE507:
 2733               	.LBE506:
 2735               	.Ltext124:
 2737               	.LM250:
 2738 072e 29B1      		in r18,41-0x20
 2739               	.LBB508:
 2740               	.LBB509:
 2742               	.Ltext125:
 2744               	.LM251:
 2745 0730 8EE9      		ldi r24,lo8(1950)
 2746 0732 97E0      		ldi r25,hi8(1950)
 2747               	/* #APP */
 2748 0734 0197      		1: sbiw r24,1
 2749 0736 F1F7      		brne 1b
 2750               	/* #NOAPP */
 2751               	.LBE509:
 2752               	.LBE508:
 2754               	.Ltext126:
 2756               	.LM252:
 2757 0738 89B1      		in r24,41-0x20
 2759               	.LM253:
 2760 073a 26FD      		sbrc r18,6
 2761 073c 54C0      		rjmp .L159
 2762 073e 86FF      		sbrs r24,6
 2763 0740 52C0      		rjmp .L159
 2764               	.LBE503:
 2765               	.LBE502:
 2766               	.LBB510:
 2767               	.LBB511:
 2769               	.LM254:
 2770 0742 569A      		sbi 42-0x20,6
 2771 0744 20E0      		ldi r18,lo8(0)
 2772 0746 30E0      		ldi r19,hi8(0)
 2773 0748 41E0      		ldi r20,lo8(1)
 2774 074a 50E0      		ldi r21,hi8(1)
 2775 074c C4E1      		ldi r28,lo8(20)
 2776 074e D0E0      		ldi r29,hi8(20)
 2777 0750 A0E9      		ldi r26,lo8(400)
 2778 0752 B1E0      		ldi r27,hi8(400)
 2779 0754 E4EA      		ldi r30,lo8(420)
 2780 0756 F1E0      		ldi r31,hi8(420)
 2781               	.L162:
 2782               	.LBB512:
 2783               	.LBB513:
 2784               	.LBB514:
 2786               	.LM255:
 2787 0758 CA01      		movw r24,r20
 2788 075a 022E      		mov r0,r18
 2789 075c 02C0      		rjmp 2f
 2790 075e 880F      	1:	lsl r24
 2791 0760 991F      		rol r25
 2792 0762 0A94      	2:	dec r0
 2793 0764 E2F7      		brpl 1b
 2794 0766 8575      		andi r24,lo8(85)
 2795 0768 49F0      		breq .L163
 2796               	.LBB515:
 2797               	.LBB516:
 2799               	.LM256:
 2800 076a 5E98      		cbi 43-0x20,6
 2801               	.LBB517:
 2802               	.LBB518:
 2804               	.Ltext127:
 2806               	.LM257:
 2807 076c CE01      		movw r24,r28
 2808               	/* #APP */
 2809 076e 0197      		1: sbiw r24,1
 2810 0770 F1F7      		brne 1b
 2811               	/* #NOAPP */
 2812               	.LBE518:
 2813               	.LBE517:
 2815               	.Ltext128:
 2817               	.LM258:
 2818 0772 5E9A      		sbi 43-0x20,6
 2819               	.LBB519:
 2820               	.LBB520:
 2822               	.Ltext129:
 2824               	.LM259:
 2825 0774 CD01      		movw r24,r26
 2826               	/* #APP */
 2827 0776 0197      		1: sbiw r24,1
 2828 0778 F1F7      		brne 1b
 2829               	/* #NOAPP */
 2830 077a 05C0      		rjmp .L165
 2831               	.L163:
 2832               	.LBE520:
 2833               	.LBE519:
 2834               	.LBE516:
 2835               	.LBE515:
 2836               	.LBB521:
 2837               	.LBB522:
 2839               	.Ltext130:
 2841               	.LM260:
 2842 077c 5E98      		cbi 43-0x20,6
 2843               	.LBB523:
 2844               	.LBB524:
 2846               	.Ltext131:
 2848               	.LM261:
 2849 077e CF01      		movw r24,r30
 2850               	/* #APP */
 2851 0780 0197      		1: sbiw r24,1
 2852 0782 F1F7      		brne 1b
 2853               	/* #NOAPP */
 2854               	.LBE524:
 2855               	.LBE523:
 2857               	.Ltext132:
 2859               	.LM262:
 2860 0784 5E9A      		sbi 43-0x20,6
 2861               	.L165:
 2862 0786 2F5F      		subi r18,lo8(-(1))
 2863 0788 3F4F      		sbci r19,hi8(-(1))
 2864               	.LBE522:
 2865               	.LBE521:
 2866               	.LBE514:
 2867               	.LBE513:
 2869               	.LM263:
 2870 078a 2830      		cpi r18,8
 2871 078c 3105      		cpc r19,__zero_reg__
 2872 078e 09F4      		brne .+2
 2873 0790 77C0      		rjmp .L197
 2874 0792 E2CF      		rjmp .L162
 2875               	.L167:
 2876               	.LBE512:
 2877               	.LBE511:
 2878               	.LBE510:
 2879               	.LBB525:
 2880               	.LBB526:
 2881               	.LBB527:
 2882               	.LBB528:
 2884               	.LM264:
 2885 0794 81E0      		ldi r24,lo8(1)
 2886 0796 90E0      		ldi r25,hi8(1)
 2887 0798 022E      		mov r0,r18
 2888 079a 02C0      		rjmp 2f
 2889 079c 880F      	1:	lsl r24
 2890 079e 991F      		rol r25
 2891 07a0 0A94      	2:	dec r0
 2892 07a2 E2F7      		brpl 1b
 2893 07a4 8E23      		and r24,r30
 2894 07a6 59F0      		breq .L168
 2895               	.LBB529:
 2896               	.LBB530:
 2898               	.LM265:
 2899 07a8 5E98      		cbi 43-0x20,6
 2900               	.LBB531:
 2901               	.LBB532:
 2903               	.Ltext133:
 2905               	.LM266:
 2906 07aa 84E1      		ldi r24,lo8(20)
 2907 07ac 90E0      		ldi r25,hi8(20)
 2908               	/* #APP */
 2909 07ae 0197      		1: sbiw r24,1
 2910 07b0 F1F7      		brne 1b
 2911               	/* #NOAPP */
 2912               	.LBE532:
 2913               	.LBE531:
 2915               	.Ltext134:
 2917               	.LM267:
 2918 07b2 5E9A      		sbi 43-0x20,6
 2919               	.LBB533:
 2920               	.LBB534:
 2922               	.Ltext135:
 2924               	.LM268:
 2925 07b4 80E9      		ldi r24,lo8(400)
 2926 07b6 91E0      		ldi r25,hi8(400)
 2927               	/* #APP */
 2928 07b8 0197      		1: sbiw r24,1
 2929 07ba F1F7      		brne 1b
 2930               	/* #NOAPP */
 2931 07bc 06C0      		rjmp .L170
 2932               	.L168:
 2933               	.LBE534:
 2934               	.LBE533:
 2935               	.LBE530:
 2936               	.LBE529:
 2937               	.LBB535:
 2938               	.LBB536:
 2940               	.Ltext136:
 2942               	.LM269:
 2943 07be 5E98      		cbi 43-0x20,6
 2944               	.LBB537:
 2945               	.LBB538:
 2947               	.Ltext137:
 2949               	.LM270:
 2950 07c0 84EA      		ldi r24,lo8(420)
 2951 07c2 91E0      		ldi r25,hi8(420)
 2952               	/* #APP */
 2953 07c4 0197      		1: sbiw r24,1
 2954 07c6 F1F7      		brne 1b
 2955               	/* #NOAPP */
 2956               	.LBE538:
 2957               	.LBE537:
 2959               	.Ltext138:
 2961               	.LM271:
 2962 07c8 5E9A      		sbi 43-0x20,6
 2963               	.L170:
 2964 07ca 2F5F      		subi r18,lo8(-(1))
 2965 07cc 3F4F      		sbci r19,hi8(-(1))
 2966               	.LBE536:
 2967               	.LBE535:
 2968               	.LBE528:
 2969               	.LBE527:
 2971               	.LM272:
 2972 07ce 2830      		cpi r18,8
 2973 07d0 3105      		cpc r19,__zero_reg__
 2974 07d2 01F7      		brne .L167
 2975 07d4 4F5F      		subi r20,lo8(-(1))
 2976 07d6 5F4F      		sbci r21,hi8(-(1))
 2977               	.LBE526:
 2979               	.LM273:
 2980 07d8 4830      		cpi r20,8
 2981 07da 5105      		cpc r21,__zero_reg__
 2982 07dc 09F0      		breq .+2
 2983 07de 52C0      		rjmp .L172
 2984               	.L202:
 2985 07e0 81E0      		ldi r24,lo8(1)
 2986 07e2 90E0      		ldi r25,hi8(1)
 2987 07e4 02C0      		rjmp .L158
 2988               	.L159:
 2989 07e6 8FEF      		ldi r24,lo8(-1)
 2990 07e8 9FEF      		ldi r25,hi8(-1)
 2991               	.L158:
 2992               	.LBE525:
 2993               	.LBE501:
 2994               	.LBE500:
 419:onewire/onewire.c ****         ret = ow_skip_rom();
 420:onewire/onewire.c ****     else
 421:onewire/onewire.c ****         ret = ow_match_rom(rom);
 422:onewire/onewire.c **** 
 423:onewire/onewire.c ****     if (ret < 0)
 2996               	.LM274:
 2997 07ea 87FF      		sbrs r24,7
 2998 07ec 04C0      		rjmp .L175
 424:onewire/onewire.c ****         return ret;
 3000               	.LM275:
 3001 07ee 9927      		clr r25
 3002 07f0 87FD      		sbrc r24,7
 3003 07f2 9095      		com r25
 3004 07f4 4EC0      		rjmp .L177
 3005               	.L175:
 3006               	.LBB539:
 3007               	.LBB540:
 3009               	.LM276:
 3010 07f6 569A      		sbi 42-0x20,6
 3011 07f8 20E0      		ldi r18,lo8(0)
 3012 07fa 30E0      		ldi r19,hi8(0)
 3013 07fc 41E0      		ldi r20,lo8(1)
 3014 07fe 50E0      		ldi r21,hi8(1)
 3015 0800 C4E1      		ldi r28,lo8(20)
 3016 0802 D0E0      		ldi r29,hi8(20)
 3017 0804 A0E9      		ldi r26,lo8(400)
 3018 0806 B1E0      		ldi r27,hi8(400)
 3019 0808 E4EA      		ldi r30,lo8(420)
 3020 080a F1E0      		ldi r31,hi8(420)
 3021               	.L178:
 3022               	.LBB541:
 3023               	.LBB542:
 3024               	.LBB543:
 3026               	.LM277:
 3027 080c CA01      		movw r24,r20
 3028 080e 022E      		mov r0,r18
 3029 0810 02C0      		rjmp 2f
 3030 0812 880F      	1:	lsl r24
 3031 0814 991F      		rol r25
 3032 0816 0A94      	2:	dec r0
 3033 0818 E2F7      		brpl 1b
 3034 081a 8474      		andi r24,lo8(68)
 3035 081c 49F0      		breq .L179
 3036               	.LBB544:
 3037               	.LBB545:
 3039               	.LM278:
 3040 081e 5E98      		cbi 43-0x20,6
 3041               	.LBB546:
 3042               	.LBB547:
 3044               	.Ltext139:
 3046               	.LM279:
 3047 0820 CE01      		movw r24,r28
 3048               	/* #APP */
 3049 0822 0197      		1: sbiw r24,1
 3050 0824 F1F7      		brne 1b
 3051               	/* #NOAPP */
 3052               	.LBE547:
 3053               	.LBE546:
 3055               	.Ltext140:
 3057               	.LM280:
 3058 0826 5E9A      		sbi 43-0x20,6
 3059               	.LBB548:
 3060               	.LBB549:
 3062               	.Ltext141:
 3064               	.LM281:
 3065 0828 CD01      		movw r24,r26
 3066               	/* #APP */
 3067 082a 0197      		1: sbiw r24,1
 3068 082c F1F7      		brne 1b
 3069               	/* #NOAPP */
 3070 082e 05C0      		rjmp .L181
 3071               	.L179:
 3072               	.LBE549:
 3073               	.LBE548:
 3074               	.LBE545:
 3075               	.LBE544:
 3076               	.LBB550:
 3077               	.LBB551:
 3079               	.Ltext142:
 3081               	.LM282:
 3082 0830 5E98      		cbi 43-0x20,6
 3083               	.LBB552:
 3084               	.LBB553:
 3086               	.Ltext143:
 3088               	.LM283:
 3089 0832 CF01      		movw r24,r30
 3090               	/* #APP */
 3091 0834 0197      		1: sbiw r24,1
 3092 0836 F1F7      		brne 1b
 3093               	/* #NOAPP */
 3094               	.LBE553:
 3095               	.LBE552:
 3097               	.Ltext144:
 3099               	.LM284:
 3100 0838 5E9A      		sbi 43-0x20,6
 3101               	.L181:
 3102 083a 2F5F      		subi r18,lo8(-(1))
 3103 083c 3F4F      		sbci r19,hi8(-(1))
 3104               	.LBE551:
 3105               	.LBE550:
 3106               	.LBE543:
 3107               	.LBE542:
 3109               	.LM285:
 3110 083e 2830      		cpi r18,8
 3111 0840 3105      		cpc r19,__zero_reg__
 3112 0842 21F7      		brne .L178
 3113               	.LBE541:
 3114               	.LBE540:
 3115               	.LBE539:
 425:onewire/onewire.c **** 
 426:onewire/onewire.c ****     /* transmit command byte */
 427:onewire/onewire.c ****     ow_write_byte(OW_FUNC_CONVERT);
 428:onewire/onewire.c **** 
 429:onewire/onewire.c ****     OW_CONFIG_OUTPUT();
 3117               	.LM286:
 3118 0844 569A      		sbi 42-0x20,6
 430:onewire/onewire.c ****     OW_HIGH();
 3120               	.LM287:
 3121 0846 5E9A      		sbi 43-0x20,6
 431:onewire/onewire.c **** 
 432:onewire/onewire.c ****     if (!wait)
 3123               	.LM288:
 3124 0848 6623      		tst r22
 3125 084a 19F4      		brne .L189
 3126 084c 80E0      		ldi r24,lo8(0)
 3127 084e 90E0      		ldi r25,hi8(0)
 3128 0850 20C0      		rjmp .L177
 3129               	.L189:
 3130               	.LBB554:
 3131               	.LBB555:
 3133               	.LM289:
 3134 0852 569A      		sbi 42-0x20,6
 3136               	.LM290:
 3137 0854 5E98      		cbi 43-0x20,6
 3138               	.LBB556:
 3139               	.LBB557:
 3141               	.Ltext145:
 3143               	.LM291:
 3144 0856 85E0      		ldi r24,lo8(5)
 3145 0858 90E0      		ldi r25,hi8(5)
 3146               	/* #APP */
 3147 085a 0197      		1: sbiw r24,1
 3148 085c F1F7      		brne 1b
 3149               	/* #NOAPP */
 3150               	.LBE557:
 3151               	.LBE556:
 3153               	.Ltext146:
 3155               	.LM292:
 3156 085e 5E9A      		sbi 43-0x20,6
 3158               	.LM293:
 3159 0860 5E9A      		sbi 43-0x20,6
 3160 0862 5698      		cbi 42-0x20,6
 3161               	.LBB558:
 3162               	.LBB559:
 3164               	.Ltext147:
 3166               	.LM294:
 3167 0864 86E4      		ldi r24,lo8(70)
 3168 0866 90E0      		ldi r25,hi8(70)
 3169               	/* #APP */
 3170 0868 0197      		1: sbiw r24,1
 3171 086a F1F7      		brne 1b
 3172               	/* #NOAPP */
 3173               	.LBE559:
 3174               	.LBE558:
 3176               	.Ltext148:
 3178               	.LM295:
 3179 086c 29B1      		in r18,41-0x20
 3180               	.LBB560:
 3181               	.LBB561:
 3183               	.Ltext149:
 3185               	.LM296:
 3186 086e 85E4      		ldi r24,lo8(325)
 3187 0870 91E0      		ldi r25,hi8(325)
 3188               	/* #APP */
 3189 0872 0197      		1: sbiw r24,1
 3190 0874 F1F7      		brne 1b
 3191               	/* #NOAPP */
 3192               	.LBE561:
 3193               	.LBE560:
 3194               	.LBE555:
 3195               	.LBE554:
 3197               	.Ltext150:
 433:onewire/onewire.c ****         return 0;
 434:onewire/onewire.c **** 
 435:onewire/onewire.c ****     while(!ow_read());
 3199               	.LM297:
 3200 0876 26FF      		sbrs r18,6
 3201 0878 ECCF      		rjmp .L189
 3202 087a 81E0      		ldi r24,lo8(1)
 3203 087c 90E0      		ldi r25,hi8(1)
 3204 087e 09C0      		rjmp .L177
 3205               	.L197:
 3206 0880 40E0      		ldi r20,lo8(0)
 3207 0882 50E0      		ldi r21,hi8(0)
 3208               	.L172:
 3209               	.LBB562:
 3210               	.LBB563:
 3211               	.LBB564:
 3212               	.LBB565:
 3214               	.LM298:
 3215 0884 F801      		movw r30,r16
 3216 0886 E40F      		add r30,r20
 3217 0888 F51F      		adc r31,r21
 3218 088a E081      		ld r30,Z
 3219 088c 20E0      		ldi r18,lo8(0)
 3220 088e 30E0      		ldi r19,hi8(0)
 3221 0890 81CF      		rjmp .L167
 3222               	.L177:
 3223               	.LBE565:
 3224               	.LBE564:
 3225               	.LBE563:
 3226               	.LBE562:
 3227               	/* epilogue: frame size=0 */
 3228 0892 DF91      		pop r29
 3229 0894 CF91      		pop r28
 3230 0896 1F91      		pop r17
 3231 0898 0F91      		pop r16
 3232 089a 0895      		ret
 3233               	/* epilogue end (size=5) */
 3234               	/* function ow_start_convert size 313 (304) */
 3266               	.Lscope12:
 3268               		.stabd	78,0,0
 3272               	.global	ow_read_scratchpad
 3274               	ow_read_scratchpad:
 3275               		.stabd	46,0,0
 436:onewire/onewire.c **** 
 437:onewire/onewire.c ****     return 1;
 438:onewire/onewire.c **** 
 439:onewire/onewire.c **** } /* }}} */
 440:onewire/onewire.c **** 
 441:onewire/onewire.c **** int8_t ow_read_scratchpad(struct ow_rom_code_t *rom, struct ow_scratchpad_t *scratchpad)
 442:onewire/onewire.c **** /* {{{ */ {
 3277               	.LM299:
 3278               	/* prologue: frame size=0 */
 3279 089c CF92      		push r12
 3280 089e DF92      		push r13
 3281 08a0 EF92      		push r14
 3282 08a2 FF92      		push r15
 3283 08a4 0F93      		push r16
 3284 08a6 1F93      		push r17
 3285 08a8 CF93      		push r28
 3286 08aa DF93      		push r29
 3287               	/* prologue end (size=8) */
 3288 08ac 8C01      		movw r16,r24
 3289 08ae 6B01      		movw r12,r22
 443:onewire/onewire.c **** 
 444:onewire/onewire.c ****     int8_t ret;
 445:onewire/onewire.c **** 
 446:onewire/onewire.c ****     if (rom == NULL)
 3291               	.LM300:
 3292 08b0 892B      		or r24,r25
 3293 08b2 09F0      		breq .+2
 3294 08b4 3FC0      		rjmp .L204
 3295               	.LBB655:
 3296               	.LBB656:
 3297               	.LBB657:
 3298               	.LBB658:
 3300               	.LM301:
 3301 08b6 569A      		sbi 42-0x20,6
 3303               	.LM302:
 3304 08b8 5E98      		cbi 43-0x20,6
 3305               	.LBB659:
 3306               	.LBB660:
 3308               	.Ltext151:
 3310               	.LM303:
 3311 08ba 80E6      		ldi r24,lo8(2400)
 3312 08bc 99E0      		ldi r25,hi8(2400)
 3313               	/* #APP */
 3314 08be 0197      		1: sbiw r24,1
 3315 08c0 F1F7      		brne 1b
 3316               	/* #NOAPP */
 3317               	.LBE660:
 3318               	.LBE659:
 3320               	.Ltext152:
 3322               	.LM304:
 3323 08c2 5E9A      		sbi 43-0x20,6
 3325               	.LM305:
 3326 08c4 5E9A      		sbi 43-0x20,6
 3327 08c6 5698      		cbi 42-0x20,6
 3328               	.LBB661:
 3329               	.LBB662:
 3331               	.Ltext153:
 3333               	.LM306:
 3334 08c8 82EC      		ldi r24,lo8(450)
 3335 08ca 91E0      		ldi r25,hi8(450)
 3336               	/* #APP */
 3337 08cc 0197      		1: sbiw r24,1
 3338 08ce F1F7      		brne 1b
 3339               	/* #NOAPP */
 3340               	.LBE662:
 3341               	.LBE661:
 3343               	.Ltext154:
 3345               	.LM307:
 3346 08d0 29B1      		in r18,41-0x20
 3347               	.LBB663:
 3348               	.LBB664:
 3350               	.Ltext155:
 3352               	.LM308:
 3353 08d2 8EE9      		ldi r24,lo8(1950)
 3354 08d4 97E0      		ldi r25,hi8(1950)
 3355               	/* #APP */
 3356 08d6 0197      		1: sbiw r24,1
 3357 08d8 F1F7      		brne 1b
 3358               	/* #NOAPP */
 3359               	.LBE664:
 3360               	.LBE663:
 3362               	.Ltext156:
 3364               	.LM309:
 3365 08da 89B1      		in r24,41-0x20
 3367               	.LM310:
 3368 08dc 26FD      		sbrc r18,6
 3369 08de 93C0      		rjmp .L216
 3370 08e0 86FF      		sbrs r24,6
 3371 08e2 91C0      		rjmp .L216
 3372               	.LBE658:
 3373               	.LBE657:
 3374               	.LBB665:
 3375               	.LBB666:
 3377               	.LM311:
 3378 08e4 569A      		sbi 42-0x20,6
 3379 08e6 20E0      		ldi r18,lo8(0)
 3380 08e8 30E0      		ldi r19,hi8(0)
 3381 08ea 41E0      		ldi r20,lo8(1)
 3382 08ec 50E0      		ldi r21,hi8(1)
 3383 08ee C4E1      		ldi r28,lo8(20)
 3384 08f0 D0E0      		ldi r29,hi8(20)
 3385 08f2 A0E9      		ldi r26,lo8(400)
 3386 08f4 B1E0      		ldi r27,hi8(400)
 3387 08f6 E4EA      		ldi r30,lo8(420)
 3388 08f8 F1E0      		ldi r31,hi8(420)
 3389               	.L209:
 3390               	.LBB667:
 3391               	.LBB668:
 3392               	.LBB669:
 3394               	.LM312:
 3395 08fa CA01      		movw r24,r20
 3396 08fc 022E      		mov r0,r18
 3397 08fe 02C0      		rjmp 2f
 3398 0900 880F      	1:	lsl r24
 3399 0902 991F      		rol r25
 3400 0904 0A94      	2:	dec r0
 3401 0906 E2F7      		brpl 1b
 3402 0908 8C7C      		andi r24,lo8(-52)
 3403 090a 49F0      		breq .L210
 3404               	.LBB670:
 3405               	.LBB671:
 3407               	.LM313:
 3408 090c 5E98      		cbi 43-0x20,6
 3409               	.LBB672:
 3410               	.LBB673:
 3412               	.Ltext157:
 3414               	.LM314:
 3415 090e CE01      		movw r24,r28
 3416               	/* #APP */
 3417 0910 0197      		1: sbiw r24,1
 3418 0912 F1F7      		brne 1b
 3419               	/* #NOAPP */
 3420               	.LBE673:
 3421               	.LBE672:
 3423               	.Ltext158:
 3425               	.LM315:
 3426 0914 5E9A      		sbi 43-0x20,6
 3427               	.LBB674:
 3428               	.LBB675:
 3430               	.Ltext159:
 3432               	.LM316:
 3433 0916 CD01      		movw r24,r26
 3434               	/* #APP */
 3435 0918 0197      		1: sbiw r24,1
 3436 091a F1F7      		brne 1b
 3437               	/* #NOAPP */
 3438 091c 05C0      		rjmp .L212
 3439               	.L210:
 3440               	.LBE675:
 3441               	.LBE674:
 3442               	.LBE671:
 3443               	.LBE670:
 3444               	.LBB676:
 3445               	.LBB677:
 3447               	.Ltext160:
 3449               	.LM317:
 3450 091e 5E98      		cbi 43-0x20,6
 3451               	.LBB678:
 3452               	.LBB679:
 3454               	.Ltext161:
 3456               	.LM318:
 3457 0920 CF01      		movw r24,r30
 3458               	/* #APP */
 3459 0922 0197      		1: sbiw r24,1
 3460 0924 F1F7      		brne 1b
 3461               	/* #NOAPP */
 3462               	.LBE679:
 3463               	.LBE678:
 3465               	.Ltext162:
 3467               	.LM319:
 3468 0926 5E9A      		sbi 43-0x20,6
 3469               	.L212:
 3470 0928 2F5F      		subi r18,lo8(-(1))
 3471 092a 3F4F      		sbci r19,hi8(-(1))
 3472               	.LBE677:
 3473               	.LBE676:
 3474               	.LBE669:
 3475               	.LBE668:
 3477               	.LM320:
 3478 092c 2830      		cpi r18,8
 3479 092e 3105      		cpc r19,__zero_reg__
 3480 0930 21F7      		brne .L209
 3481 0932 66C0      		rjmp .L262
 3482               	.L204:
 3483               	.LBE667:
 3484               	.LBE666:
 3485               	.LBE665:
 3486               	.LBE656:
 3487               	.LBE655:
 3488               	.LBB680:
 3489               	.LBB681:
 3490               	.LBB682:
 3491               	.LBB683:
 3493               	.LM321:
 3494 0934 569A      		sbi 42-0x20,6
 3496               	.LM322:
 3497 0936 5E98      		cbi 43-0x20,6
 3498               	.LBB684:
 3499               	.LBB685:
 3501               	.Ltext163:
 3503               	.LM323:
 3504 0938 80E6      		ldi r24,lo8(2400)
 3505 093a 99E0      		ldi r25,hi8(2400)
 3506               	/* #APP */
 3507 093c 0197      		1: sbiw r24,1
 3508 093e F1F7      		brne 1b
 3509               	/* #NOAPP */
 3510               	.LBE685:
 3511               	.LBE684:
 3513               	.Ltext164:
 3515               	.LM324:
 3516 0940 5E9A      		sbi 43-0x20,6
 3518               	.LM325:
 3519 0942 5E9A      		sbi 43-0x20,6
 3520 0944 5698      		cbi 42-0x20,6
 3521               	.LBB686:
 3522               	.LBB687:
 3524               	.Ltext165:
 3526               	.LM326:
 3527 0946 82EC      		ldi r24,lo8(450)
 3528 0948 91E0      		ldi r25,hi8(450)
 3529               	/* #APP */
 3530 094a 0197      		1: sbiw r24,1
 3531 094c F1F7      		brne 1b
 3532               	/* #NOAPP */
 3533               	.LBE687:
 3534               	.LBE686:
 3536               	.Ltext166:
 3538               	.LM327:
 3539 094e 29B1      		in r18,41-0x20
 3540               	.LBB688:
 3541               	.LBB689:
 3543               	.Ltext167:
 3545               	.LM328:
 3546 0950 8EE9      		ldi r24,lo8(1950)
 3547 0952 97E0      		ldi r25,hi8(1950)
 3548               	/* #APP */
 3549 0954 0197      		1: sbiw r24,1
 3550 0956 F1F7      		brne 1b
 3551               	/* #NOAPP */
 3552               	.LBE689:
 3553               	.LBE688:
 3555               	.Ltext168:
 3557               	.LM329:
 3558 0958 89B1      		in r24,41-0x20
 3560               	.LM330:
 3561 095a 26FD      		sbrc r18,6
 3562 095c 54C0      		rjmp .L216
 3563 095e 86FF      		sbrs r24,6
 3564 0960 52C0      		rjmp .L216
 3565               	.LBE683:
 3566               	.LBE682:
 3567               	.LBB690:
 3568               	.LBB691:
 3570               	.LM331:
 3571 0962 569A      		sbi 42-0x20,6
 3572 0964 20E0      		ldi r18,lo8(0)
 3573 0966 30E0      		ldi r19,hi8(0)
 3574 0968 41E0      		ldi r20,lo8(1)
 3575 096a 50E0      		ldi r21,hi8(1)
 3576 096c C4E1      		ldi r28,lo8(20)
 3577 096e D0E0      		ldi r29,hi8(20)
 3578 0970 A0E9      		ldi r26,lo8(400)
 3579 0972 B1E0      		ldi r27,hi8(400)
 3580 0974 E4EA      		ldi r30,lo8(420)
 3581 0976 F1E0      		ldi r31,hi8(420)
 3582               	.L219:
 3583               	.LBB692:
 3584               	.LBB693:
 3585               	.LBB694:
 3587               	.LM332:
 3588 0978 CA01      		movw r24,r20
 3589 097a 022E      		mov r0,r18
 3590 097c 02C0      		rjmp 2f
 3591 097e 880F      	1:	lsl r24
 3592 0980 991F      		rol r25
 3593 0982 0A94      	2:	dec r0
 3594 0984 E2F7      		brpl 1b
 3595 0986 8575      		andi r24,lo8(85)
 3596 0988 49F0      		breq .L220
 3597               	.LBB695:
 3598               	.LBB696:
 3600               	.LM333:
 3601 098a 5E98      		cbi 43-0x20,6
 3602               	.LBB697:
 3603               	.LBB698:
 3605               	.Ltext169:
 3607               	.LM334:
 3608 098c CE01      		movw r24,r28
 3609               	/* #APP */
 3610 098e 0197      		1: sbiw r24,1
 3611 0990 F1F7      		brne 1b
 3612               	/* #NOAPP */
 3613               	.LBE698:
 3614               	.LBE697:
 3616               	.Ltext170:
 3618               	.LM335:
 3619 0992 5E9A      		sbi 43-0x20,6
 3620               	.LBB699:
 3621               	.LBB700:
 3623               	.Ltext171:
 3625               	.LM336:
 3626 0994 CD01      		movw r24,r26
 3627               	/* #APP */
 3628 0996 0197      		1: sbiw r24,1
 3629 0998 F1F7      		brne 1b
 3630               	/* #NOAPP */
 3631 099a 05C0      		rjmp .L222
 3632               	.L220:
 3633               	.LBE700:
 3634               	.LBE699:
 3635               	.LBE696:
 3636               	.LBE695:
 3637               	.LBB701:
 3638               	.LBB702:
 3640               	.Ltext172:
 3642               	.LM337:
 3643 099c 5E98      		cbi 43-0x20,6
 3644               	.LBB703:
 3645               	.LBB704:
 3647               	.Ltext173:
 3649               	.LM338:
 3650 099e CF01      		movw r24,r30
 3651               	/* #APP */
 3652 09a0 0197      		1: sbiw r24,1
 3653 09a2 F1F7      		brne 1b
 3654               	/* #NOAPP */
 3655               	.LBE704:
 3656               	.LBE703:
 3658               	.Ltext174:
 3660               	.LM339:
 3661 09a4 5E9A      		sbi 43-0x20,6
 3662               	.L222:
 3663 09a6 2F5F      		subi r18,lo8(-(1))
 3664 09a8 3F4F      		sbci r19,hi8(-(1))
 3665               	.LBE702:
 3666               	.LBE701:
 3667               	.LBE694:
 3668               	.LBE693:
 3670               	.LM340:
 3671 09aa 2830      		cpi r18,8
 3672 09ac 3105      		cpc r19,__zero_reg__
 3673 09ae 09F4      		brne .+2
 3674 09b0 99C0      		rjmp .L256
 3675 09b2 E2CF      		rjmp .L219
 3676               	.L224:
 3677               	.LBE692:
 3678               	.LBE691:
 3679               	.LBE690:
 3680               	.LBB705:
 3681               	.LBB706:
 3682               	.LBB707:
 3683               	.LBB708:
 3685               	.LM341:
 3686 09b4 81E0      		ldi r24,lo8(1)
 3687 09b6 90E0      		ldi r25,hi8(1)
 3688 09b8 022E      		mov r0,r18
 3689 09ba 02C0      		rjmp 2f
 3690 09bc 880F      	1:	lsl r24
 3691 09be 991F      		rol r25
 3692 09c0 0A94      	2:	dec r0
 3693 09c2 E2F7      		brpl 1b
 3694 09c4 8E23      		and r24,r30
 3695 09c6 59F0      		breq .L225
 3696               	.LBB709:
 3697               	.LBB710:
 3699               	.LM342:
 3700 09c8 5E98      		cbi 43-0x20,6
 3701               	.LBB711:
 3702               	.LBB712:
 3704               	.Ltext175:
 3706               	.LM343:
 3707 09ca 84E1      		ldi r24,lo8(20)
 3708 09cc 90E0      		ldi r25,hi8(20)
 3709               	/* #APP */
 3710 09ce 0197      		1: sbiw r24,1
 3711 09d0 F1F7      		brne 1b
 3712               	/* #NOAPP */
 3713               	.LBE712:
 3714               	.LBE711:
 3716               	.Ltext176:
 3718               	.LM344:
 3719 09d2 5E9A      		sbi 43-0x20,6
 3720               	.LBB713:
 3721               	.LBB714:
 3723               	.Ltext177:
 3725               	.LM345:
 3726 09d4 80E9      		ldi r24,lo8(400)
 3727 09d6 91E0      		ldi r25,hi8(400)
 3728               	/* #APP */
 3729 09d8 0197      		1: sbiw r24,1
 3730 09da F1F7      		brne 1b
 3731               	/* #NOAPP */
 3732 09dc 06C0      		rjmp .L227
 3733               	.L225:
 3734               	.LBE714:
 3735               	.LBE713:
 3736               	.LBE710:
 3737               	.LBE709:
 3738               	.LBB715:
 3739               	.LBB716:
 3741               	.Ltext178:
 3743               	.LM346:
 3744 09de 5E98      		cbi 43-0x20,6
 3745               	.LBB717:
 3746               	.LBB718:
 3748               	.Ltext179:
 3750               	.LM347:
 3751 09e0 84EA      		ldi r24,lo8(420)
 3752 09e2 91E0      		ldi r25,hi8(420)
 3753               	/* #APP */
 3754 09e4 0197      		1: sbiw r24,1
 3755 09e6 F1F7      		brne 1b
 3756               	/* #NOAPP */
 3757               	.LBE718:
 3758               	.LBE717:
 3760               	.Ltext180:
 3762               	.LM348:
 3763 09e8 5E9A      		sbi 43-0x20,6
 3764               	.L227:
 3765 09ea 2F5F      		subi r18,lo8(-(1))
 3766 09ec 3F4F      		sbci r19,hi8(-(1))
 3767               	.LBE716:
 3768               	.LBE715:
 3769               	.LBE708:
 3770               	.LBE707:
 3772               	.LM349:
 3773 09ee 2830      		cpi r18,8
 3774 09f0 3105      		cpc r19,__zero_reg__
 3775 09f2 01F7      		brne .L224
 3776 09f4 4F5F      		subi r20,lo8(-(1))
 3777 09f6 5F4F      		sbci r21,hi8(-(1))
 3778               	.LBE706:
 3780               	.LM350:
 3781 09f8 4830      		cpi r20,8
 3782 09fa 5105      		cpc r21,__zero_reg__
 3783 09fc 09F0      		breq .+2
 3784 09fe 74C0      		rjmp .L229
 3785               	.L262:
 3786 0a00 81E0      		ldi r24,lo8(1)
 3787 0a02 90E0      		ldi r25,hi8(1)
 3788 0a04 02C0      		rjmp .L215
 3789               	.L216:
 3790 0a06 8FEF      		ldi r24,lo8(-1)
 3791 0a08 9FEF      		ldi r25,hi8(-1)
 3792               	.L215:
 3793               	.LBE705:
 3794               	.LBE681:
 3795               	.LBE680:
 447:onewire/onewire.c ****         ret = ow_skip_rom();
 448:onewire/onewire.c ****     else
 449:onewire/onewire.c ****         ret = ow_match_rom(rom);
 450:onewire/onewire.c **** 
 451:onewire/onewire.c ****     if (ret < 0)
 3797               	.LM351:
 3798 0a0a 87FF      		sbrs r24,7
 3799 0a0c 04C0      		rjmp .L232
 452:onewire/onewire.c ****         return ret;
 3801               	.LM352:
 3802 0a0e 9927      		clr r25
 3803 0a10 87FD      		sbrc r24,7
 3804 0a12 9095      		com r25
 3805 0a14 70C0      		rjmp .L234
 3806               	.L232:
 3807               	.LBB719:
 3808               	.LBB720:
 3810               	.LM353:
 3811 0a16 569A      		sbi 42-0x20,6
 3812 0a18 20E0      		ldi r18,lo8(0)
 3813 0a1a 30E0      		ldi r19,hi8(0)
 3814 0a1c 41E0      		ldi r20,lo8(1)
 3815 0a1e 50E0      		ldi r21,hi8(1)
 3816 0a20 C4E1      		ldi r28,lo8(20)
 3817 0a22 D0E0      		ldi r29,hi8(20)
 3818 0a24 A0E9      		ldi r26,lo8(400)
 3819 0a26 B1E0      		ldi r27,hi8(400)
 3820 0a28 E4EA      		ldi r30,lo8(420)
 3821 0a2a F1E0      		ldi r31,hi8(420)
 3822               	.L235:
 3823               	.LBB721:
 3824               	.LBB722:
 3825               	.LBB723:
 3827               	.LM354:
 3828 0a2c CA01      		movw r24,r20
 3829 0a2e 022E      		mov r0,r18
 3830 0a30 02C0      		rjmp 2f
 3831 0a32 880F      	1:	lsl r24
 3832 0a34 991F      		rol r25
 3833 0a36 0A94      	2:	dec r0
 3834 0a38 E2F7      		brpl 1b
 3835 0a3a 8E7B      		andi r24,lo8(-66)
 3836 0a3c 49F0      		breq .L236
 3837               	.LBB724:
 3838               	.LBB725:
 3840               	.LM355:
 3841 0a3e 5E98      		cbi 43-0x20,6
 3842               	.LBB726:
 3843               	.LBB727:
 3845               	.Ltext181:
 3847               	.LM356:
 3848 0a40 CE01      		movw r24,r28
 3849               	/* #APP */
 3850 0a42 0197      		1: sbiw r24,1
 3851 0a44 F1F7      		brne 1b
 3852               	/* #NOAPP */
 3853               	.LBE727:
 3854               	.LBE726:
 3856               	.Ltext182:
 3858               	.LM357:
 3859 0a46 5E9A      		sbi 43-0x20,6
 3860               	.LBB728:
 3861               	.LBB729:
 3863               	.Ltext183:
 3865               	.LM358:
 3866 0a48 CD01      		movw r24,r26
 3867               	/* #APP */
 3868 0a4a 0197      		1: sbiw r24,1
 3869 0a4c F1F7      		brne 1b
 3870               	/* #NOAPP */
 3871 0a4e 05C0      		rjmp .L238
 3872               	.L236:
 3873               	.LBE729:
 3874               	.LBE728:
 3875               	.LBE725:
 3876               	.LBE724:
 3877               	.LBB730:
 3878               	.LBB731:
 3880               	.Ltext184:
 3882               	.LM359:
 3883 0a50 5E98      		cbi 43-0x20,6
 3884               	.LBB732:
 3885               	.LBB733:
 3887               	.Ltext185:
 3889               	.LM360:
 3890 0a52 CF01      		movw r24,r30
 3891               	/* #APP */
 3892 0a54 0197      		1: sbiw r24,1
 3893 0a56 F1F7      		brne 1b
 3894               	/* #NOAPP */
 3895               	.LBE733:
 3896               	.LBE732:
 3898               	.Ltext186:
 3900               	.LM361:
 3901 0a58 5E9A      		sbi 43-0x20,6
 3902               	.L238:
 3903 0a5a 2F5F      		subi r18,lo8(-(1))
 3904 0a5c 3F4F      		sbci r19,hi8(-(1))
 3905               	.LBE731:
 3906               	.LBE730:
 3907               	.LBE723:
 3908               	.LBE722:
 3910               	.LM362:
 3911 0a5e 2830      		cpi r18,8
 3912 0a60 3105      		cpc r19,__zero_reg__
 3913 0a62 21F7      		brne .L235
 3914 0a64 D601      		movw r26,r12
 3915 0a66 70E0      		ldi r23,lo8(0)
 3916 0a68 E5E0      		ldi r30,lo8(5)
 3917 0a6a EE2E      		mov r14,r30
 3918 0a6c F12C      		mov r15,__zero_reg__
 3919 0a6e 06E4      		ldi r16,lo8(70)
 3920 0a70 10E0      		ldi r17,hi8(70)
 3921 0a72 C5E4      		ldi r28,lo8(325)
 3922 0a74 D1E0      		ldi r29,hi8(325)
 3923               	.L240:
 3924               	.LBE721:
 3925               	.LBE720:
 3926               	.LBE719:
 3927               	.LBB734:
 453:onewire/onewire.c **** 
 454:onewire/onewire.c ****     /* transmit command byte */
 455:onewire/onewire.c ****     ow_write_byte(OW_FUNC_READ_SP);
 456:onewire/onewire.c **** 
 457:onewire/onewire.c ****     for (uint8_t i = 0; i < 9; i++) {
 458:onewire/onewire.c **** 
 459:onewire/onewire.c ****         /* read byte */
 460:onewire/onewire.c ****         scratchpad->bytewise[i] = 0;
 3929               	.LM363:
 3930 0a76 1C92      		st X,__zero_reg__
 3931 0a78 60E0      		ldi r22,lo8(0)
 3932 0a7a 40E0      		ldi r20,lo8(0)
 3933 0a7c 50E0      		ldi r21,hi8(0)
 3934               	.L241:
 3935               	.LBB735:
 3936               	.LBB736:
 3937               	.LBB737:
 3939               	.LM364:
 3940 0a7e 569A      		sbi 42-0x20,6
 3942               	.LM365:
 3943 0a80 5E98      		cbi 43-0x20,6
 3944               	.LBB738:
 3945               	.LBB739:
 3947               	.Ltext187:
 3949               	.LM366:
 3950 0a82 C701      		movw r24,r14
 3951               	/* #APP */
 3952 0a84 0197      		1: sbiw r24,1
 3953 0a86 F1F7      		brne 1b
 3954               	/* #NOAPP */
 3955               	.LBE739:
 3956               	.LBE738:
 3958               	.Ltext188:
 3960               	.LM367:
 3961 0a88 5E9A      		sbi 43-0x20,6
 3963               	.LM368:
 3964 0a8a 5E9A      		sbi 43-0x20,6
 3965 0a8c 5698      		cbi 42-0x20,6
 3966               	.LBB740:
 3967               	.LBB741:
 3969               	.Ltext189:
 3971               	.LM369:
 3972 0a8e C801      		movw r24,r16
 3973               	/* #APP */
 3974 0a90 0197      		1: sbiw r24,1
 3975 0a92 F1F7      		brne 1b
 3976               	/* #NOAPP */
 3977               	.LBE741:
 3978               	.LBE740:
 3980               	.Ltext190:
 3982               	.LM370:
 3983 0a94 89B1      		in r24,41-0x20
 3984               	.LBB742:
 3985               	.LBB743:
 3987               	.Ltext191:
 3989               	.LM371:
 3990 0a96 FE01      		movw r30,r28
 3991               	/* #APP */
 3992 0a98 3197      		1: sbiw r30,1
 3993 0a9a F1F7      		brne 1b
 3994               	/* #NOAPP */
 3995               	.LBE743:
 3996               	.LBE742:
 3997               	.LBE737:
 3998               	.LBE736:
 4000               	.Ltext192:
 461:onewire/onewire.c **** 
 462:onewire/onewire.c ****         for (uint8_t j = 0; j < 8; j++)
 463:onewire/onewire.c ****             scratchpad->bytewise[i] |= (ow_read() << j);
 4002               	.LM372:
 4003 0a9c 20E0      		ldi r18,lo8(0)
 4004 0a9e 30E0      		ldi r19,hi8(0)
 4005 0aa0 86FF      		sbrs r24,6
 4006 0aa2 02C0      		rjmp .L242
 4007 0aa4 21E0      		ldi r18,lo8(1)
 4008 0aa6 30E0      		ldi r19,hi8(1)
 4009               	.L242:
 4010 0aa8 042E      		mov r0,r20
 4011 0aaa 02C0      		rjmp 2f
 4012 0aac 220F      	1:	lsl r18
 4013 0aae 331F      		rol r19
 4014 0ab0 0A94      	2:	dec r0
 4015 0ab2 E2F7      		brpl 1b
 4016 0ab4 622B      		or r22,r18
 4017 0ab6 4F5F      		subi r20,lo8(-(1))
 4018 0ab8 5F4F      		sbci r21,hi8(-(1))
 4020               	.LM373:
 4021 0aba 4830      		cpi r20,8
 4022 0abc 5105      		cpc r21,__zero_reg__
 4023 0abe F9F6      		brne .L241
 4024 0ac0 6D93      		st X+,r22
 4025               	.LBE735:
 4027               	.LM374:
 4028 0ac2 7F5F      		subi r23,lo8(-(1))
 4029 0ac4 7930      		cpi r23,lo8(9)
 4030 0ac6 B9F6      		brne .L240
 4031               	.LBE734:
 464:onewire/onewire.c **** 
 465:onewire/onewire.c ****     }
 466:onewire/onewire.c **** 
 467:onewire/onewire.c ****     /* check CRC (last byte) */
 468:onewire/onewire.c ****     if (scratchpad->crc != crc_checksum(&scratchpad->bytewise, 8))
 4033               	.LM375:
 4034 0ac8 F601      		movw r30,r12
 4035 0aca 1085      		ldd r17,Z+8
 4036 0acc 68E0      		ldi r22,lo8(8)
 4037 0ace C601      		movw r24,r12
 4038 0ad0 0E94 0000 		call crc_checksum
 4039 0ad4 1817      		cp r17,r24
 4040 0ad6 19F0      		breq .L245
 4041 0ad8 8EEF      		ldi r24,lo8(-2)
 4042 0ada 9FEF      		ldi r25,hi8(-2)
 4043 0adc 0CC0      		rjmp .L234
 4044               	.L245:
 4045 0ade 81E0      		ldi r24,lo8(1)
 4046 0ae0 90E0      		ldi r25,hi8(1)
 4047 0ae2 09C0      		rjmp .L234
 4048               	.L256:
 4049 0ae4 40E0      		ldi r20,lo8(0)
 4050 0ae6 50E0      		ldi r21,hi8(0)
 4051               	.L229:
 4052               	.LBB744:
 4053               	.LBB745:
 4054               	.LBB746:
 4055               	.LBB747:
 4057               	.LM376:
 4058 0ae8 F801      		movw r30,r16
 4059 0aea E40F      		add r30,r20
 4060 0aec F51F      		adc r31,r21
 4061 0aee E081      		ld r30,Z
 4062 0af0 20E0      		ldi r18,lo8(0)
 4063 0af2 30E0      		ldi r19,hi8(0)
 4064 0af4 5FCF      		rjmp .L224
 4065               	.L234:
 4066               	.LBE747:
 4067               	.LBE746:
 4068               	.LBE745:
 4069               	.LBE744:
 4070               	/* epilogue: frame size=0 */
 4071 0af6 DF91      		pop r29
 4072 0af8 CF91      		pop r28
 4073 0afa 1F91      		pop r17
 4074 0afc 0F91      		pop r16
 4075 0afe FF90      		pop r15
 4076 0b00 EF90      		pop r14
 4077 0b02 DF90      		pop r13
 4078 0b04 CF90      		pop r12
 4079 0b06 0895      		ret
 4080               	/* epilogue end (size=9) */
 4081               	/* function ow_read_scratchpad size 356 (339) */
 4116               	.Lscope13:
 4118               		.stabd	78,0,0
 4121               	.global	ow_power
 4123               	ow_power:
 4124               		.stabd	46,0,0
 469:onewire/onewire.c ****         return -2;
 470:onewire/onewire.c **** 
 471:onewire/onewire.c ****     return 1;
 472:onewire/onewire.c **** 
 473:onewire/onewire.c **** } /* }}} */
 474:onewire/onewire.c **** 
 475:onewire/onewire.c **** int8_t ow_power(struct ow_rom_code_t *rom)
 476:onewire/onewire.c **** /* {{{ */ {
 4126               	.LM377:
 4127               	/* prologue: frame size=0 */
 4128 0b08 CF93      		push r28
 4129 0b0a DF93      		push r29
 4130               	/* prologue end (size=2) */
 4131 0b0c BC01      		movw r22,r24
 477:onewire/onewire.c **** 
 478:onewire/onewire.c ****     int8_t ret;
 479:onewire/onewire.c **** 
 480:onewire/onewire.c ****     if (rom == NULL)
 4133               	.LM378:
 4134 0b0e 892B      		or r24,r25
 4135 0b10 09F0      		breq .+2
 4136 0b12 3FC0      		rjmp .L264
 4137               	.LBB835:
 4138               	.LBB836:
 4139               	.LBB837:
 4140               	.LBB838:
 4142               	.LM379:
 4143 0b14 569A      		sbi 42-0x20,6
 4145               	.LM380:
 4146 0b16 5E98      		cbi 43-0x20,6
 4147               	.LBB839:
 4148               	.LBB840:
 4150               	.Ltext193:
 4152               	.LM381:
 4153 0b18 80E6      		ldi r24,lo8(2400)
 4154 0b1a 99E0      		ldi r25,hi8(2400)
 4155               	/* #APP */
 4156 0b1c 0197      		1: sbiw r24,1
 4157 0b1e F1F7      		brne 1b
 4158               	/* #NOAPP */
 4159               	.LBE840:
 4160               	.LBE839:
 4162               	.Ltext194:
 4164               	.LM382:
 4165 0b20 5E9A      		sbi 43-0x20,6
 4167               	.LM383:
 4168 0b22 5E9A      		sbi 43-0x20,6
 4169 0b24 5698      		cbi 42-0x20,6
 4170               	.LBB841:
 4171               	.LBB842:
 4173               	.Ltext195:
 4175               	.LM384:
 4176 0b26 82EC      		ldi r24,lo8(450)
 4177 0b28 91E0      		ldi r25,hi8(450)
 4178               	/* #APP */
 4179 0b2a 0197      		1: sbiw r24,1
 4180 0b2c F1F7      		brne 1b
 4181               	/* #NOAPP */
 4182               	.LBE842:
 4183               	.LBE841:
 4185               	.Ltext196:
 4187               	.LM385:
 4188 0b2e 29B1      		in r18,41-0x20
 4189               	.LBB843:
 4190               	.LBB844:
 4192               	.Ltext197:
 4194               	.LM386:
 4195 0b30 8EE9      		ldi r24,lo8(1950)
 4196 0b32 97E0      		ldi r25,hi8(1950)
 4197               	/* #APP */
 4198 0b34 0197      		1: sbiw r24,1
 4199 0b36 F1F7      		brne 1b
 4200               	/* #NOAPP */
 4201               	.LBE844:
 4202               	.LBE843:
 4204               	.Ltext198:
 4206               	.LM387:
 4207 0b38 89B1      		in r24,41-0x20
 4209               	.LM388:
 4210 0b3a 26FD      		sbrc r18,6
 4211 0b3c 93C0      		rjmp .L276
 4212 0b3e 86FF      		sbrs r24,6
 4213 0b40 91C0      		rjmp .L276
 4214               	.LBE838:
 4215               	.LBE837:
 4216               	.LBB845:
 4217               	.LBB846:
 4219               	.LM389:
 4220 0b42 569A      		sbi 42-0x20,6
 4221 0b44 20E0      		ldi r18,lo8(0)
 4222 0b46 30E0      		ldi r19,hi8(0)
 4223 0b48 41E0      		ldi r20,lo8(1)
 4224 0b4a 50E0      		ldi r21,hi8(1)
 4225 0b4c C4E1      		ldi r28,lo8(20)
 4226 0b4e D0E0      		ldi r29,hi8(20)
 4227 0b50 A0E9      		ldi r26,lo8(400)
 4228 0b52 B1E0      		ldi r27,hi8(400)
 4229 0b54 E4EA      		ldi r30,lo8(420)
 4230 0b56 F1E0      		ldi r31,hi8(420)
 4231               	.L269:
 4232               	.LBB847:
 4233               	.LBB848:
 4234               	.LBB849:
 4236               	.LM390:
 4237 0b58 CA01      		movw r24,r20
 4238 0b5a 022E      		mov r0,r18
 4239 0b5c 02C0      		rjmp 2f
 4240 0b5e 880F      	1:	lsl r24
 4241 0b60 991F      		rol r25
 4242 0b62 0A94      	2:	dec r0
 4243 0b64 E2F7      		brpl 1b
 4244 0b66 8C7C      		andi r24,lo8(-52)
 4245 0b68 49F0      		breq .L270
 4246               	.LBB850:
 4247               	.LBB851:
 4249               	.LM391:
 4250 0b6a 5E98      		cbi 43-0x20,6
 4251               	.LBB852:
 4252               	.LBB853:
 4254               	.Ltext199:
 4256               	.LM392:
 4257 0b6c CE01      		movw r24,r28
 4258               	/* #APP */
 4259 0b6e 0197      		1: sbiw r24,1
 4260 0b70 F1F7      		brne 1b
 4261               	/* #NOAPP */
 4262               	.LBE853:
 4263               	.LBE852:
 4265               	.Ltext200:
 4267               	.LM393:
 4268 0b72 5E9A      		sbi 43-0x20,6
 4269               	.LBB854:
 4270               	.LBB855:
 4272               	.Ltext201:
 4274               	.LM394:
 4275 0b74 CD01      		movw r24,r26
 4276               	/* #APP */
 4277 0b76 0197      		1: sbiw r24,1
 4278 0b78 F1F7      		brne 1b
 4279               	/* #NOAPP */
 4280 0b7a 05C0      		rjmp .L272
 4281               	.L270:
 4282               	.LBE855:
 4283               	.LBE854:
 4284               	.LBE851:
 4285               	.LBE850:
 4286               	.LBB856:
 4287               	.LBB857:
 4289               	.Ltext202:
 4291               	.LM395:
 4292 0b7c 5E98      		cbi 43-0x20,6
 4293               	.LBB858:
 4294               	.LBB859:
 4296               	.Ltext203:
 4298               	.LM396:
 4299 0b7e CF01      		movw r24,r30
 4300               	/* #APP */
 4301 0b80 0197      		1: sbiw r24,1
 4302 0b82 F1F7      		brne 1b
 4303               	/* #NOAPP */
 4304               	.LBE859:
 4305               	.LBE858:
 4307               	.Ltext204:
 4309               	.LM397:
 4310 0b84 5E9A      		sbi 43-0x20,6
 4311               	.L272:
 4312 0b86 2F5F      		subi r18,lo8(-(1))
 4313 0b88 3F4F      		sbci r19,hi8(-(1))
 4314               	.LBE857:
 4315               	.LBE856:
 4316               	.LBE849:
 4317               	.LBE848:
 4319               	.LM398:
 4320 0b8a 2830      		cpi r18,8
 4321 0b8c 3105      		cpc r19,__zero_reg__
 4322 0b8e 21F7      		brne .L269
 4323 0b90 66C0      		rjmp .L312
 4324               	.L264:
 4325               	.LBE847:
 4326               	.LBE846:
 4327               	.LBE845:
 4328               	.LBE836:
 4329               	.LBE835:
 4330               	.LBB860:
 4331               	.LBB861:
 4332               	.LBB862:
 4333               	.LBB863:
 4335               	.LM399:
 4336 0b92 569A      		sbi 42-0x20,6
 4338               	.LM400:
 4339 0b94 5E98      		cbi 43-0x20,6
 4340               	.LBB864:
 4341               	.LBB865:
 4343               	.Ltext205:
 4345               	.LM401:
 4346 0b96 80E6      		ldi r24,lo8(2400)
 4347 0b98 99E0      		ldi r25,hi8(2400)
 4348               	/* #APP */
 4349 0b9a 0197      		1: sbiw r24,1
 4350 0b9c F1F7      		brne 1b
 4351               	/* #NOAPP */
 4352               	.LBE865:
 4353               	.LBE864:
 4355               	.Ltext206:
 4357               	.LM402:
 4358 0b9e 5E9A      		sbi 43-0x20,6
 4360               	.LM403:
 4361 0ba0 5E9A      		sbi 43-0x20,6
 4362 0ba2 5698      		cbi 42-0x20,6
 4363               	.LBB866:
 4364               	.LBB867:
 4366               	.Ltext207:
 4368               	.LM404:
 4369 0ba4 82EC      		ldi r24,lo8(450)
 4370 0ba6 91E0      		ldi r25,hi8(450)
 4371               	/* #APP */
 4372 0ba8 0197      		1: sbiw r24,1
 4373 0baa F1F7      		brne 1b
 4374               	/* #NOAPP */
 4375               	.LBE867:
 4376               	.LBE866:
 4378               	.Ltext208:
 4380               	.LM405:
 4381 0bac 29B1      		in r18,41-0x20
 4382               	.LBB868:
 4383               	.LBB869:
 4385               	.Ltext209:
 4387               	.LM406:
 4388 0bae 8EE9      		ldi r24,lo8(1950)
 4389 0bb0 97E0      		ldi r25,hi8(1950)
 4390               	/* #APP */
 4391 0bb2 0197      		1: sbiw r24,1
 4392 0bb4 F1F7      		brne 1b
 4393               	/* #NOAPP */
 4394               	.LBE869:
 4395               	.LBE868:
 4397               	.Ltext210:
 4399               	.LM407:
 4400 0bb6 89B1      		in r24,41-0x20
 4402               	.LM408:
 4403 0bb8 26FD      		sbrc r18,6
 4404 0bba 54C0      		rjmp .L276
 4405 0bbc 86FF      		sbrs r24,6
 4406 0bbe 52C0      		rjmp .L276
 4407               	.LBE863:
 4408               	.LBE862:
 4409               	.LBB870:
 4410               	.LBB871:
 4412               	.LM409:
 4413 0bc0 569A      		sbi 42-0x20,6
 4414 0bc2 20E0      		ldi r18,lo8(0)
 4415 0bc4 30E0      		ldi r19,hi8(0)
 4416 0bc6 41E0      		ldi r20,lo8(1)
 4417 0bc8 50E0      		ldi r21,hi8(1)
 4418 0bca C4E1      		ldi r28,lo8(20)
 4419 0bcc D0E0      		ldi r29,hi8(20)
 4420 0bce A0E9      		ldi r26,lo8(400)
 4421 0bd0 B1E0      		ldi r27,hi8(400)
 4422 0bd2 E4EA      		ldi r30,lo8(420)
 4423 0bd4 F1E0      		ldi r31,hi8(420)
 4424               	.L279:
 4425               	.LBB872:
 4426               	.LBB873:
 4427               	.LBB874:
 4429               	.LM410:
 4430 0bd6 CA01      		movw r24,r20
 4431 0bd8 022E      		mov r0,r18
 4432 0bda 02C0      		rjmp 2f
 4433 0bdc 880F      	1:	lsl r24
 4434 0bde 991F      		rol r25
 4435 0be0 0A94      	2:	dec r0
 4436 0be2 E2F7      		brpl 1b
 4437 0be4 8575      		andi r24,lo8(85)
 4438 0be6 49F0      		breq .L280
 4439               	.LBB875:
 4440               	.LBB876:
 4442               	.LM411:
 4443 0be8 5E98      		cbi 43-0x20,6
 4444               	.LBB877:
 4445               	.LBB878:
 4447               	.Ltext211:
 4449               	.LM412:
 4450 0bea CE01      		movw r24,r28
 4451               	/* #APP */
 4452 0bec 0197      		1: sbiw r24,1
 4453 0bee F1F7      		brne 1b
 4454               	/* #NOAPP */
 4455               	.LBE878:
 4456               	.LBE877:
 4458               	.Ltext212:
 4460               	.LM413:
 4461 0bf0 5E9A      		sbi 43-0x20,6
 4462               	.LBB879:
 4463               	.LBB880:
 4465               	.Ltext213:
 4467               	.LM414:
 4468 0bf2 CD01      		movw r24,r26
 4469               	/* #APP */
 4470 0bf4 0197      		1: sbiw r24,1
 4471 0bf6 F1F7      		brne 1b
 4472               	/* #NOAPP */
 4473 0bf8 05C0      		rjmp .L282
 4474               	.L280:
 4475               	.LBE880:
 4476               	.LBE879:
 4477               	.LBE876:
 4478               	.LBE875:
 4479               	.LBB881:
 4480               	.LBB882:
 4482               	.Ltext214:
 4484               	.LM415:
 4485 0bfa 5E98      		cbi 43-0x20,6
 4486               	.LBB883:
 4487               	.LBB884:
 4489               	.Ltext215:
 4491               	.LM416:
 4492 0bfc CF01      		movw r24,r30
 4493               	/* #APP */
 4494 0bfe 0197      		1: sbiw r24,1
 4495 0c00 F1F7      		brne 1b
 4496               	/* #NOAPP */
 4497               	.LBE884:
 4498               	.LBE883:
 4500               	.Ltext216:
 4502               	.LM417:
 4503 0c02 5E9A      		sbi 43-0x20,6
 4504               	.L282:
 4505 0c04 2F5F      		subi r18,lo8(-(1))
 4506 0c06 3F4F      		sbci r19,hi8(-(1))
 4507               	.LBE882:
 4508               	.LBE881:
 4509               	.LBE874:
 4510               	.LBE873:
 4512               	.LM418:
 4513 0c08 2830      		cpi r18,8
 4514 0c0a 3105      		cpc r19,__zero_reg__
 4515 0c0c 09F4      		brne .+2
 4516 0c0e 72C0      		rjmp .L308
 4517 0c10 E2CF      		rjmp .L279
 4518               	.L284:
 4519               	.LBE872:
 4520               	.LBE871:
 4521               	.LBE870:
 4522               	.LBB885:
 4523               	.LBB886:
 4524               	.LBB887:
 4525               	.LBB888:
 4527               	.LM419:
 4528 0c12 81E0      		ldi r24,lo8(1)
 4529 0c14 90E0      		ldi r25,hi8(1)
 4530 0c16 022E      		mov r0,r18
 4531 0c18 02C0      		rjmp 2f
 4532 0c1a 880F      	1:	lsl r24
 4533 0c1c 991F      		rol r25
 4534 0c1e 0A94      	2:	dec r0
 4535 0c20 E2F7      		brpl 1b
 4536 0c22 8E23      		and r24,r30
 4537 0c24 59F0      		breq .L285
 4538               	.LBB889:
 4539               	.LBB890:
 4541               	.LM420:
 4542 0c26 5E98      		cbi 43-0x20,6
 4543               	.LBB891:
 4544               	.LBB892:
 4546               	.Ltext217:
 4548               	.LM421:
 4549 0c28 84E1      		ldi r24,lo8(20)
 4550 0c2a 90E0      		ldi r25,hi8(20)
 4551               	/* #APP */
 4552 0c2c 0197      		1: sbiw r24,1
 4553 0c2e F1F7      		brne 1b
 4554               	/* #NOAPP */
 4555               	.LBE892:
 4556               	.LBE891:
 4558               	.Ltext218:
 4560               	.LM422:
 4561 0c30 5E9A      		sbi 43-0x20,6
 4562               	.LBB893:
 4563               	.LBB894:
 4565               	.Ltext219:
 4567               	.LM423:
 4568 0c32 80E9      		ldi r24,lo8(400)
 4569 0c34 91E0      		ldi r25,hi8(400)
 4570               	/* #APP */
 4571 0c36 0197      		1: sbiw r24,1
 4572 0c38 F1F7      		brne 1b
 4573               	/* #NOAPP */
 4574 0c3a 06C0      		rjmp .L287
 4575               	.L285:
 4576               	.LBE894:
 4577               	.LBE893:
 4578               	.LBE890:
 4579               	.LBE889:
 4580               	.LBB895:
 4581               	.LBB896:
 4583               	.Ltext220:
 4585               	.LM424:
 4586 0c3c 5E98      		cbi 43-0x20,6
 4587               	.LBB897:
 4588               	.LBB898:
 4590               	.Ltext221:
 4592               	.LM425:
 4593 0c3e 84EA      		ldi r24,lo8(420)
 4594 0c40 91E0      		ldi r25,hi8(420)
 4595               	/* #APP */
 4596 0c42 0197      		1: sbiw r24,1
 4597 0c44 F1F7      		brne 1b
 4598               	/* #NOAPP */
 4599               	.LBE898:
 4600               	.LBE897:
 4602               	.Ltext222:
 4604               	.LM426:
 4605 0c46 5E9A      		sbi 43-0x20,6
 4606               	.L287:
 4607 0c48 2F5F      		subi r18,lo8(-(1))
 4608 0c4a 3F4F      		sbci r19,hi8(-(1))
 4609               	.LBE896:
 4610               	.LBE895:
 4611               	.LBE888:
 4612               	.LBE887:
 4614               	.LM427:
 4615 0c4c 2830      		cpi r18,8
 4616 0c4e 3105      		cpc r19,__zero_reg__
 4617 0c50 01F7      		brne .L284
 4618 0c52 4F5F      		subi r20,lo8(-(1))
 4619 0c54 5F4F      		sbci r21,hi8(-(1))
 4620               	.LBE886:
 4622               	.LM428:
 4623 0c56 4830      		cpi r20,8
 4624 0c58 5105      		cpc r21,__zero_reg__
 4625 0c5a 09F0      		breq .+2
 4626 0c5c 4DC0      		rjmp .L289
 4627               	.L312:
 4628 0c5e 81E0      		ldi r24,lo8(1)
 4629 0c60 90E0      		ldi r25,hi8(1)
 4630 0c62 02C0      		rjmp .L275
 4631               	.L276:
 4632 0c64 8FEF      		ldi r24,lo8(-1)
 4633 0c66 9FEF      		ldi r25,hi8(-1)
 4634               	.L275:
 4635               	.LBE885:
 4636               	.LBE861:
 4637               	.LBE860:
 481:onewire/onewire.c ****         ret = ow_skip_rom();
 482:onewire/onewire.c ****     else
 483:onewire/onewire.c ****         ret = ow_match_rom(rom);
 484:onewire/onewire.c **** 
 485:onewire/onewire.c ****     if (ret < 0)
 4639               	.LM429:
 4640 0c68 87FF      		sbrs r24,7
 4641 0c6a 04C0      		rjmp .L292
 486:onewire/onewire.c ****         return ret;
 4643               	.LM430:
 4644 0c6c 9927      		clr r25
 4645 0c6e 87FD      		sbrc r24,7
 4646 0c70 9095      		com r25
 4647 0c72 49C0      		rjmp .L294
 4648               	.L292:
 4649               	.LBB899:
 4650               	.LBB900:
 4652               	.LM431:
 4653 0c74 569A      		sbi 42-0x20,6
 4654 0c76 20E0      		ldi r18,lo8(0)
 4655 0c78 30E0      		ldi r19,hi8(0)
 4656 0c7a 41E0      		ldi r20,lo8(1)
 4657 0c7c 50E0      		ldi r21,hi8(1)
 4658 0c7e C4E1      		ldi r28,lo8(20)
 4659 0c80 D0E0      		ldi r29,hi8(20)
 4660 0c82 A0E9      		ldi r26,lo8(400)
 4661 0c84 B1E0      		ldi r27,hi8(400)
 4662 0c86 E4EA      		ldi r30,lo8(420)
 4663 0c88 F1E0      		ldi r31,hi8(420)
 4664               	.L295:
 4665               	.LBB901:
 4666               	.LBB902:
 4667               	.LBB903:
 4669               	.LM432:
 4670 0c8a CA01      		movw r24,r20
 4671 0c8c 022E      		mov r0,r18
 4672 0c8e 02C0      		rjmp 2f
 4673 0c90 880F      	1:	lsl r24
 4674 0c92 991F      		rol r25
 4675 0c94 0A94      	2:	dec r0
 4676 0c96 E2F7      		brpl 1b
 4677 0c98 847B      		andi r24,lo8(-76)
 4678 0c9a 49F0      		breq .L296
 4679               	.LBB904:
 4680               	.LBB905:
 4682               	.LM433:
 4683 0c9c 5E98      		cbi 43-0x20,6
 4684               	.LBB906:
 4685               	.LBB907:
 4687               	.Ltext223:
 4689               	.LM434:
 4690 0c9e CE01      		movw r24,r28
 4691               	/* #APP */
 4692 0ca0 0197      		1: sbiw r24,1
 4693 0ca2 F1F7      		brne 1b
 4694               	/* #NOAPP */
 4695               	.LBE907:
 4696               	.LBE906:
 4698               	.Ltext224:
 4700               	.LM435:
 4701 0ca4 5E9A      		sbi 43-0x20,6
 4702               	.LBB908:
 4703               	.LBB909:
 4705               	.Ltext225:
 4707               	.LM436:
 4708 0ca6 CD01      		movw r24,r26
 4709               	/* #APP */
 4710 0ca8 0197      		1: sbiw r24,1
 4711 0caa F1F7      		brne 1b
 4712               	/* #NOAPP */
 4713 0cac 05C0      		rjmp .L298
 4714               	.L296:
 4715               	.LBE909:
 4716               	.LBE908:
 4717               	.LBE905:
 4718               	.LBE904:
 4719               	.LBB910:
 4720               	.LBB911:
 4722               	.Ltext226:
 4724               	.LM437:
 4725 0cae 5E98      		cbi 43-0x20,6
 4726               	.LBB912:
 4727               	.LBB913:
 4729               	.Ltext227:
 4731               	.LM438:
 4732 0cb0 CF01      		movw r24,r30
 4733               	/* #APP */
 4734 0cb2 0197      		1: sbiw r24,1
 4735 0cb4 F1F7      		brne 1b
 4736               	/* #NOAPP */
 4737               	.LBE913:
 4738               	.LBE912:
 4740               	.Ltext228:
 4742               	.LM439:
 4743 0cb6 5E9A      		sbi 43-0x20,6
 4744               	.L298:
 4745 0cb8 2F5F      		subi r18,lo8(-(1))
 4746 0cba 3F4F      		sbci r19,hi8(-(1))
 4747               	.LBE911:
 4748               	.LBE910:
 4749               	.LBE903:
 4750               	.LBE902:
 4752               	.LM440:
 4753 0cbc 2830      		cpi r18,8
 4754 0cbe 3105      		cpc r19,__zero_reg__
 4755 0cc0 21F7      		brne .L295
 4756               	.LBE901:
 4757               	.LBE900:
 4758               	.LBE899:
 4759               	.LBB914:
 4760               	.LBB915:
 4762               	.LM441:
 4763 0cc2 569A      		sbi 42-0x20,6
 4765               	.LM442:
 4766 0cc4 5E98      		cbi 43-0x20,6
 4767               	.LBB916:
 4768               	.LBB917:
 4770               	.Ltext229:
 4772               	.LM443:
 4773 0cc6 85E0      		ldi r24,lo8(5)
 4774 0cc8 90E0      		ldi r25,hi8(5)
 4775               	/* #APP */
 4776 0cca 0197      		1: sbiw r24,1
 4777 0ccc F1F7      		brne 1b
 4778               	/* #NOAPP */
 4779               	.LBE917:
 4780               	.LBE916:
 4782               	.Ltext230:
 4784               	.LM444:
 4785 0cce 5E9A      		sbi 43-0x20,6
 4787               	.LM445:
 4788 0cd0 5E9A      		sbi 43-0x20,6
 4789 0cd2 5698      		cbi 42-0x20,6
 4790               	.LBB918:
 4791               	.LBB919:
 4793               	.Ltext231:
 4795               	.LM446:
 4796 0cd4 86E4      		ldi r24,lo8(70)
 4797 0cd6 90E0      		ldi r25,hi8(70)
 4798               	/* #APP */
 4799 0cd8 0197      		1: sbiw r24,1
 4800 0cda F1F7      		brne 1b
 4801               	/* #NOAPP */
 4802               	.LBE919:
 4803               	.LBE918:
 4805               	.Ltext232:
 4807               	.LM447:
 4808 0cdc 29B1      		in r18,41-0x20
 4809               	.LBB920:
 4810               	.LBB921:
 4812               	.Ltext233:
 4814               	.LM448:
 4815 0cde 85E4      		ldi r24,lo8(325)
 4816 0ce0 91E0      		ldi r25,hi8(325)
 4817               	/* #APP */
 4818 0ce2 0197      		1: sbiw r24,1
 4819 0ce4 F1F7      		brne 1b
 4820               	/* #NOAPP */
 4821               	.LBE921:
 4822               	.LBE920:
 4823               	.LBE915:
 4824               	.LBE914:
 4826               	.Ltext234:
 487:onewire/onewire.c **** 
 488:onewire/onewire.c ****     /* transmit command byte */
 489:onewire/onewire.c ****     ow_write_byte(OW_FUNC_READ_POWER);
 490:onewire/onewire.c **** 
 491:onewire/onewire.c ****     return ow_read();
 4828               	.LM449:
 4829 0ce6 80E0      		ldi r24,lo8(0)
 4830 0ce8 90E0      		ldi r25,hi8(0)
 4831 0cea 26FF      		sbrs r18,6
 4832 0cec 0CC0      		rjmp .L294
 4833 0cee 81E0      		ldi r24,lo8(1)
 4834 0cf0 90E0      		ldi r25,hi8(1)
 4835 0cf2 09C0      		rjmp .L294
 4836               	.L308:
 4837 0cf4 40E0      		ldi r20,lo8(0)
 4838 0cf6 50E0      		ldi r21,hi8(0)
 4839               	.L289:
 4840               	.LBB922:
 4841               	.LBB923:
 4842               	.LBB924:
 4843               	.LBB925:
 4845               	.LM450:
 4846 0cf8 FB01      		movw r30,r22
 4847 0cfa E40F      		add r30,r20
 4848 0cfc F51F      		adc r31,r21
 4849 0cfe E081      		ld r30,Z
 4850 0d00 20E0      		ldi r18,lo8(0)
 4851 0d02 30E0      		ldi r19,hi8(0)
 4852 0d04 86CF      		rjmp .L284
 4853               	.L294:
 4854               	.LBE925:
 4855               	.LBE924:
 4856               	.LBE923:
 4857               	.LBE922:
 4858               	/* epilogue: frame size=0 */
 4859 0d06 DF91      		pop r29
 4860 0d08 CF91      		pop r28
 4861 0d0a 0895      		ret
 4862               	/* epilogue end (size=3) */
 4863               	/* function ow_power size 304 (299) */
 4895               	.Lscope14:
 4897               		.stabd	78,0,0
 4898               		.section	.progmem.data,"a",@progbits
 4901               	__c.1953:
 4902 0000 0D0A 7072 		.string	"\r\npre-address: "
 4902      652D 6164 
 4902      6472 6573 
 4902      733A 2000 
 4904               		.text
 4906               	.Letext0:
 4907               	/* File "onewire/onewire.c": code 1927 = 0x0787 (1830), prologues  43, epilogues  54 */
DEFINED SYMBOLS
                            *ABS*:00000000 onewire.c
     /tmp/ccqlVwGU.s:3      *ABS*:0000003f __SREG__
     /tmp/ccqlVwGU.s:4      *ABS*:0000003e __SP_H__
     /tmp/ccqlVwGU.s:5      *ABS*:0000003d __SP_L__
     /tmp/ccqlVwGU.s:6      *ABS*:00000000 __tmp_reg__
     /tmp/ccqlVwGU.s:7      *ABS*:00000001 __zero_reg__
     /tmp/ccqlVwGU.s:142    .text:00000000 init_onewire
     /tmp/ccqlVwGU.s:166    .text:00000008 reset_onewire
     /tmp/ccqlVwGU.s:280    .text:00000048 ow_write_0
     /tmp/ccqlVwGU.s:322    .text:00000056 ow_write_1
     /tmp/ccqlVwGU.s:381    .text:0000006c ow_read
     /tmp/ccqlVwGU.s:488    .text:0000009e ow_set_address_bit
     /tmp/ccqlVwGU.s:556    .text:000000e8 ow_write
     /tmp/ccqlVwGU.s:649    .text:00000110 ow_write_byte
     /tmp/ccqlVwGU.s:779    .text:0000016a ow_search_rom
     /tmp/ccqlVwGU.s:4901   .progmem.data:00000000 __c.1953
     /tmp/ccqlVwGU.s:1520   .text:000003e0 ow_match_rom
     /tmp/ccqlVwGU.s:1870   .text:000004d2 ow_skip_rom
     /tmp/ccqlVwGU.s:2097   .text:00000562 ow_read_rom
     /tmp/ccqlVwGU.s:2478   .text:00000686 ow_start_convert
     /tmp/ccqlVwGU.s:3274   .text:0000089c ow_read_scratchpad
     /tmp/ccqlVwGU.s:4123   .text:00000b08 ow_power

UNDEFINED SYMBOLS
__do_copy_data
__do_clear_bss
uart_putf
uart_puthexbyte
uart_eol
crc_checksum
